(dp1
S'133'
p2
(lp3
(dp4
S'difficult'
p5
I0
sS'pose'
p6
S'Unspecified'
p7
sS'name'
p8
S'boat'
p9
sS'bbox'
p10
(lp11
I179
aI113
aI327
aI148
asS'truncated'
p12
I0
sa(dp13
g5
I0
sg6
S'Unspecified'
p14
sg8
S'other'
p15
sg10
(lp16
I228
aI73
aI359
aI85
asg12
I0
sa(dp17
g5
I0
sg6
S'Unspecified'
p18
sg8
S'person'
p19
sg10
(lp20
I253
aI33
aI270
aI68
asg12
I0
sa(dp21
g5
I0
sg6
S'Unspecified'
p22
sg8
S'person'
p23
sg10
(lp24
I277
aI27
aI297
aI71
asg12
I0
sa(dp25
g5
I0
sg6
S'Unspecified'
p26
sg8
S'boat'
p27
sg10
(lp28
I1
aI45
aI25
aI64
asg12
I0
sasS'132'
p29
(lp30
(dp31
g5
I0
sg6
S'Unspecified'
p32
sg8
S'boat'
p33
sg10
(lp34
I132
aI125
aI181
aI156
asg12
I0
sasS'131'
p35
(lp36
(dp37
g5
I0
sg6
S'Unspecified'
p38
sg8
S'boat'
p39
sg10
(lp40
I74
aI0
aI228
aI200
asg12
I0
sa(dp41
g5
I0
sg6
S'Unspecified'
p42
sg8
S'boat'
p43
sg10
(lp44
I343
aI129
aI382
aI148
asg12
I0
sa(dp45
g5
I0
sg6
S'Unspecified'
p46
sg8
S'boat'
p47
sg10
(lp48
I42
aI131
aI80
aI150
asg12
I0
sa(dp49
g5
I0
sg6
S'Unspecified'
p50
sg8
S'boat'
p51
sg10
(lp52
I1
aI129
aI39
aI140
asg12
I0
sa(dp53
g5
I0
sg6
S'Unspecified'
p54
sg8
S'boat'
p55
sg10
(lp56
I254
aI133
aI281
aI139
asg12
I0
sa(dp57
g5
I0
sg6
S'Unspecified'
p58
sg8
S'boat'
p59
sg10
(lp60
I285
aI128
aI298
aI135
asg12
I0
sa(dp61
g5
I0
sg6
S'Unspecified'
p62
sg8
S'boat'
p63
sg10
(lp64
I302
aI128
aI326
aI132
asg12
I0
sa(dp65
g5
I0
sg6
S'Unspecified'
p66
sg8
S'boat'
p67
sg10
(lp68
I329
aI128
aI340
aI134
asg12
I0
sa(dp69
g5
I0
sg6
S'Unspecified'
p70
sg8
S'boat'
p71
sg10
(lp72
I403
aI132
aI424
aI135
asg12
I0
sa(dp73
g5
I0
sg6
S'Unspecified'
p74
sg8
S'boat'
p75
sg10
(lp76
I464
aI128
aI495
aI140
asg12
I0
sa(dp77
g5
I0
sg6
S'Unspecified'
p78
sg8
S'boat'
p79
sg10
(lp80
I237
aI131
aI251
aI137
asg12
I0
sa(dp81
g5
I0
sg6
S'Unspecified'
p82
sg8
S'boat'
p83
sg10
(lp84
I253
aI127
aI262
aI132
asg12
I0
sa(dp85
g5
I0
sg6
S'Unspecified'
p86
sg8
S'boat'
p87
sg10
(lp88
I211
aI127
aI225
aI137
asg12
I0
sasS'130'
p89
(lp90
(dp91
g5
I0
sg6
S'Unspecified'
p92
sg8
S'boat'
p93
sg10
(lp94
I336
aI107
aI372
aI131
asg12
I0
sa(dp95
g5
I0
sg6
S'Unspecified'
p96
sg8
S'buoy'
p97
sg10
(lp98
I377
aI93
aI385
aI101
asg12
I0
sa(dp99
g5
I0
sg6
S'Unspecified'
p100
sg8
S'buoy'
p101
sg10
(lp102
I51
aI83
aI57
aI88
asg12
I0
sa(dp103
g5
I0
sg6
S'Unspecified'
p104
sg8
S'other'
p105
sg10
(lp106
I230
aI82
aI246
aI92
asg12
I0
sa(dp107
g5
I0
sg6
S'Unspecified'
p108
sg8
S'buoy'
p109
sg10
(lp110
I86
aI116
aI124
aI152
asg12
I0
sasS'137'
p111
(lp112
(dp113
g5
I0
sg6
S'Unspecified'
p114
sg8
S'buoy'
p115
sg10
(lp116
I200
aI146
aI208
aI157
asg12
I0
sasS'136'
p117
(lp118
(dp119
g5
I0
sg6
S'Unspecified'
p120
sg8
S'buoy'
p121
sg10
(lp122
I139
aI118
aI142
aI123
asg12
I0
sa(dp123
g5
I0
sg6
S'Unspecified'
p124
sg8
S'boat'
p125
sg10
(lp126
I240
aI114
aI262
aI121
asg12
I0
sa(dp127
g5
I0
sg6
S'Unspecified'
p128
sg8
S'buoy'
p129
sg10
(lp130
I320
aI119
aI323
aI123
asg12
I0
sasS'135'
p131
(lp132
(dp133
g5
I0
sg6
S'Unspecified'
p134
sg8
S'boat'
p135
sg10
(lp136
I69
aI166
aI325
aI247
asg12
I0
sasS'134'
p137
(lp138
(dp139
g5
I0
sg6
S'Unspecified'
p140
sg8
S'boat'
p141
sg10
(lp142
I153
aI123
aI254
aI157
asg12
I0
sa(dp143
g5
I0
sg6
S'Unspecified'
p144
sg8
S'boat'
p145
sg10
(lp146
I362
aI130
aI454
aI159
asg12
I0
sa(dp147
g5
I0
sg6
S'Unspecified'
p148
sg8
S'boat'
p149
sg10
(lp150
I177
aI177
aI277
aI210
asg12
I0
sa(dp151
g5
I0
sg6
S'Unspecified'
p152
sg8
S'boat'
p153
sg10
(lp154
I338
aI195
aI479
aI238
asg12
I0
sa(dp155
g5
I0
sg6
S'Unspecified'
p156
sg8
S'buoy'
p157
sg10
(lp158
I0
aI143
aI14
aI161
asg12
I0
sa(dp159
g5
I0
sg6
S'Unspecified'
p160
sg8
S'boat'
p161
sg10
(lp162
I131
aI232
aI239
aI261
asg12
I0
sasS'139'
p163
(lp164
(dp165
g5
I0
sg6
S'Unspecified'
p166
sg8
S'boat'
p167
sg10
(lp168
I335
aI193
aI400
aI211
asg12
I0
sasS'138'
p169
(lp170
(dp171
g5
I0
sg6
S'Unspecified'
p172
sg8
S'boat'
p173
sg10
(lp174
I189
aI152
aI226
aI164
asg12
I0
sa(dp175
g5
I0
sg6
S'Unspecified'
p176
sg8
S'buoy'
p177
sg10
(lp178
I0
aI151
aI6
aI156
asg12
I0
sasS'24'
p179
(lp180
(dp181
g5
I0
sg6
S'Unspecified'
p182
sg8
S'boat'
p183
sg10
(lp184
I90
aI163
aI397
aI242
asg12
I0
sa(dp185
g5
I0
sg6
S'Unspecified'
p186
sg8
S'buoy'
p187
sg10
(lp188
I103
aI124
aI114
aI136
asg12
I0
sa(dp189
g5
I0
sg6
S'Unspecified'
p190
sg8
S'boat'
p191
sg10
(lp192
I123
aI128
aI159
aI134
asg12
I0
sa(dp193
g5
I0
sg6
S'Unspecified'
p194
sg8
S'boat'
p195
sg10
(lp196
I222
aI126
aI243
aI135
asg12
I0
sasS'25'
p197
(lp198
(dp199
g5
I0
sg6
S'Unspecified'
p200
sg8
S'boat'
p201
sg10
(lp202
I53
aI48
aI111
aI69
asg12
I0
sa(dp203
g5
I0
sg6
S'Unspecified'
p204
sg8
S'boat'
p205
sg10
(lp206
I428
aI55
aI477
aI66
asg12
I0
sa(dp207
g5
I0
sg6
S'Unspecified'
p208
sg8
S'boat'
p209
sg10
(lp210
I72
aI107
aI419
aI195
asg12
I0
sasS'26'
p211
(lp212
(dp213
g5
I0
sg6
S'Unspecified'
p214
sg8
S'boat'
p215
sg10
(lp216
I164
aI152
aI341
aI205
asg12
I0
sa(dp217
g5
I0
sg6
S'Unspecified'
p218
sg8
S'boat'
p219
sg10
(lp220
I280
aI133
aI315
aI143
asg12
I0
sa(dp221
g5
I0
sg6
S'Unspecified'
p222
sg8
S'buoy'
p223
sg10
(lp224
I481
aI130
aI492
aI139
asg12
I0
sa(dp225
g5
I0
sg6
S'Unspecified'
p226
sg8
S'buoy'
p227
sg10
(lp228
I26
aI128
aI37
aI138
asg12
I0
sa(dp229
g5
I0
sg6
S'Unspecified'
p230
sg8
S'boat'
p231
sg10
(lp232
I102
aI126
aI127
aI133
asg12
I0
sa(dp233
g5
I0
sg6
S'Unspecified'
p234
sg8
S'boat'
p235
sg10
(lp236
I128
aI129
aI156
aI134
asg12
I0
sa(dp237
g5
I0
sg6
S'Unspecified'
p238
sg8
S'boat'
p239
sg10
(lp240
I160
aI131
aI197
aI136
asg12
I0
sa(dp241
g5
I0
sg6
S'Unspecified'
p242
sg8
S'other'
p243
sg10
(lp244
I70
aI126
aI75
aI137
asg12
I0
sasS'27'
p245
(lp246
(dp247
g5
I0
sg6
S'Unspecified'
p248
sg8
S'boat'
p249
sg10
(lp250
I120
aI159
aI268
aI250
asg12
I0
sa(dp251
g5
I0
sg6
S'Unspecified'
p252
sg8
S'buoy'
p253
sg10
(lp254
I179
aI149
aI242
aI199
asg12
I0
sasS'20'
p255
(lp256
(dp257
g5
I0
sg6
S'Unspecified'
p258
sg8
S'boat'
p259
sg10
(lp260
I51
aI164
aI276
aI244
asg12
I0
sa(dp261
g5
I0
sg6
S'Unspecified'
p262
sg8
S'boat'
p263
sg10
(lp264
I386
aI149
aI498
aI176
asg12
I0
sasS'21'
p265
(lp266
(dp267
g5
I0
sg6
S'Unspecified'
p268
sg8
S'boat'
p269
sg10
(lp270
I0
aI145
aI146
aI174
asg12
I0
sa(dp271
g5
I0
sg6
S'Unspecified'
p272
sg8
S'boat'
p273
sg10
(lp274
I0
aI179
aI86
aI220
asg12
I0
sa(dp275
g5
I0
sg6
S'Unspecified'
p276
sg8
S'boat'
p277
sg10
(lp278
I46
aI167
aI266
aI256
asg12
I0
sasS'22'
p279
(lp280
(dp281
g5
I0
sg6
S'Unspecified'
p282
sg8
S'boat'
p283
sg10
(lp284
I67
aI152
aI313
aI230
asg12
I0
sasS'23'
p285
(lp286
(dp287
g5
I0
sg6
S'Unspecified'
p288
sg8
S'boat'
p289
sg10
(lp290
I97
aI158
aI308
aI225
asg12
I0
sa(dp291
g5
I0
sg6
S'Unspecified'
p292
sg8
S'buoy'
p293
sg10
(lp294
I282
aI180
aI353
aI248
asg12
I0
sa(dp295
g5
I0
sg6
S'Unspecified'
p296
sg8
S'boat'
p297
sg10
(lp298
I320
aI132
aI383
aI144
asg12
I0
sasS'28'
p299
(lp300
(dp301
g5
I0
sg6
S'Unspecified'
p302
sg8
S'buoy'
p303
sg10
(lp304
I105
aI142
aI181
aI208
asg12
I0
sa(dp305
g5
I0
sg6
S'Unspecified'
p306
sg8
S'boat'
p307
sg10
(lp308
I296
aI145
aI354
aI231
asg12
I0
sasS'29'
p309
(lp310
(dp311
g5
I0
sg6
S'Unspecified'
p312
sg8
S'buoy'
p313
sg10
(lp314
I200
aI137
aI272
aI197
asg12
I0
sa(dp315
g5
I0
sg6
S'Unspecified'
p316
sg8
S'boat'
p317
sg10
(lp318
I342
aI127
aI425
aI192
asg12
I0
sasS'119'
p319
(lp320
(dp321
g5
I0
sg6
S'Unspecified'
p322
sg8
S'boat'
p323
sg10
(lp324
I26
aI159
aI95
aI170
asg12
I0
sa(dp325
g5
I0
sg6
S'Unspecified'
p326
sg8
S'boat'
p327
sg10
(lp328
I216
aI227
aI370
aI266
asg12
I0
sasS'120'
p329
(lp330
(dp331
g5
I0
sg6
S'Unspecified'
p332
sg8
S'boat'
p333
sg10
(lp334
I165
aI197
aI370
aI255
asg12
I0
sa(dp335
g5
I0
sg6
S'Unspecified'
p336
sg8
S'buoy'
p337
sg10
(lp338
I265
aI195
aI294
aI216
asg12
I0
sa(dp339
g5
I0
sg6
S'Unspecified'
p340
sg8
S'other'
p341
sg10
(lp342
I207
aI176
aI347
aI188
asg12
I0
sa(dp343
g5
I0
sg6
S'Unspecified'
p344
sg8
S'person'
p345
sg10
(lp346
I269
aI115
aI292
aI172
asg12
I0
sasS'121'
p347
(lp348
(dp349
g5
I0
sg6
S'Unspecified'
p350
sg8
S'other'
p351
sg10
(lp352
I2
aI173
aI161
aI197
asg12
I0
sa(dp353
g5
I0
sg6
S'Unspecified'
p354
sg8
S'boat'
p355
sg10
(lp356
I167
aI148
aI321
aI178
asg12
I0
sa(dp357
g5
I0
sg6
S'Unspecified'
p358
sg8
S'buoy'
p359
sg10
(lp360
I348
aI144
aI382
aI178
asg12
I0
sa(dp361
g5
I0
sg6
S'Unspecified'
p362
sg8
S'buoy'
p363
sg10
(lp364
I471
aI128
aI492
aI148
asg12
I0
sa(dp365
g5
I0
sg6
S'Unspecified'
p366
sg8
S'boat'
p367
sg10
(lp368
I202
aI171
aI447
aI195
asg12
I0
sa(dp369
g5
I0
sg6
S'Unspecified'
p370
sg8
S'person'
p371
sg10
(lp372
I8
aI60
aI39
aI175
asg12
I0
sa(dp373
g5
I0
sg6
S'Unspecified'
p374
sg8
S'person'
p375
sg10
(lp376
I33
aI58
aI67
aI174
asg12
I0
sa(dp377
g5
I0
sg6
S'Unspecified'
p378
sg8
S'person'
p379
sg10
(lp380
I70
aI58
aI97
aI170
asg12
I0
sa(dp381
g5
I0
sg6
S'Unspecified'
p382
sg8
S'person'
p383
sg10
(lp384
I106
aI64
aI133
aI178
asg12
I0
sa(dp385
g5
I0
sg6
S'Unspecified'
p386
sg8
S'person'
p387
sg10
(lp388
I134
aI125
aI160
aI182
asg12
I0
sasS'122'
p389
(lp390
(dp391
g5
I0
sg6
S'Unspecified'
p392
sg8
S'boat'
p393
sg10
(lp394
I151
aI121
aI304
aI240
asg12
I0
sasS'123'
p395
(lp396
(dp397
g5
I0
sg6
S'Unspecified'
p398
sg8
S'buoy'
p399
sg10
(lp400
I26
aI173
aI82
aI223
asg12
I0
sa(dp401
g5
I0
sg6
S'Unspecified'
p402
sg8
S'boat'
p403
sg10
(lp404
I84
aI150
aI271
aI199
asg12
I0
sa(dp405
g5
I0
sg6
S'Unspecified'
p406
sg8
S'boat'
p407
sg10
(lp408
I148
aI188
aI208
aI227
asg12
I0
sa(dp409
g5
I0
sg6
S'Unspecified'
p410
sg8
S'boat'
p411
sg10
(lp412
I279
aI124
aI489
aI197
asg12
I0
sasS'124'
p413
(lp414
(dp415
g5
I0
sg6
S'Unspecified'
p416
sg8
S'boat'
p417
sg10
(lp418
I42
aI244
aI307
aI304
asg12
I0
sa(dp419
g5
I0
sg6
S'Unspecified'
p420
sg8
S'boat'
p421
sg10
(lp422
I200
aI197
aI455
aI262
asg12
I0
sasS'125'
p423
(lp424
(dp425
g5
I0
sg6
S'Unspecified'
p426
sg8
S'boat'
p427
sg10
(lp428
I53
aI90
aI494
aI200
asg12
I0
sasS'126'
p429
(lp430
(dp431
g5
I0
sg6
S'Unspecified'
p432
sg8
S'boat'
p433
sg10
(lp434
I212
aI153
aI401
aI198
asg12
I0
sasS'127'
p435
(lp436
(dp437
g5
I0
sg6
S'Unspecified'
p438
sg8
S'boat'
p439
sg10
(lp440
I60
aI148
aI205
aI201
asg12
I0
sa(dp441
g5
I0
sg6
S'Unspecified'
p442
sg8
S'boat'
p443
sg10
(lp444
I289
aI144
aI408
aI190
asg12
I0
sa(dp445
g5
I0
sg6
S'Unspecified'
p446
sg8
S'boat'
p447
sg10
(lp448
I401
aI124
aI489
aI170
asg12
I0
sa(dp449
g5
I0
sg6
S'Unspecified'
p450
sg8
S'buoy'
p451
sg10
(lp452
I458
aI63
aI465
aI74
asg12
I0
sa(dp453
g5
I0
sg6
S'Unspecified'
p454
sg8
S'buoy'
p455
sg10
(lp456
I83
aI52
aI90
aI60
asg12
I0
sa(dp457
g5
I0
sg6
S'Unspecified'
p458
sg8
S'boat'
p459
sg10
(lp460
I17
aI36
aI77
aI51
asg12
I0
sasS'128'
p461
(lp462
(dp463
g5
I0
sg6
S'Unspecified'
p464
sg8
S'boat'
p465
sg10
(lp466
I198
aI137
aI330
aI187
asg12
I0
sa(dp467
g5
I0
sg6
S'Unspecified'
p468
sg8
S'buoy'
p469
sg10
(lp470
I20
aI132
aI29
aI137
asg12
I0
sa(dp471
g5
I0
sg6
S'Unspecified'
p472
sg8
S'buoy'
p473
sg10
(lp474
I26
aI127
aI31
aI134
asg12
I0
sasS'129'
p475
(lp476
(dp477
g5
I0
sg6
S'Unspecified'
p478
sg8
S'buoy'
p479
sg10
(lp480
I304
aI143
aI342
aI180
asg12
I0
sa(dp481
g5
I0
sg6
S'Unspecified'
p482
sg8
S'boat'
p483
sg10
(lp484
I203
aI105
aI236
aI118
asg12
I0
sa(dp485
g5
I0
sg6
S'Unspecified'
p486
sg8
S'boat'
p487
sg10
(lp488
I118
aI108
aI137
aI114
asg12
I0
sa(dp489
g5
I0
sg6
S'Unspecified'
p490
sg8
S'boat'
p491
sg10
(lp492
I41
aI178
aI444
aI314
asg12
I0
sasS'118'
p493
(lp494
(dp495
g5
I0
sg6
S'Unspecified'
p496
sg8
S'boat'
p497
sg10
(lp498
I180
aI134
aI436
aI227
asg12
I0
sa(dp499
g5
I0
sg6
S'Unspecified'
p500
sg8
S'other'
p501
sg10
(lp502
I73
aI165
aI185
aI184
asg12
I0
sa(dp503
g5
I0
sg6
S'Unspecified'
p504
sg8
S'person'
p505
sg10
(lp506
I161
aI81
aI187
aI165
asg12
I0
sa(dp507
g5
I0
sg6
S'Unspecified'
p508
sg8
S'person'
p509
sg10
(lp510
I192
aI85
aI217
aI163
asg12
I0
sasS'59'
p511
(lp512
(dp513
g5
I0
sg6
S'Unspecified'
p514
sg8
S'boat'
p515
sg10
(lp516
I70
aI142
aI394
aI211
asg12
I0
sa(dp517
g5
I0
sg6
S'Unspecified'
p518
sg8
S'boat'
p519
sg10
(lp520
I307
aI7
aI354
aI20
asg12
I0
sa(dp521
g5
I0
sg6
S'Unspecified'
p522
sg8
S'boat'
p523
sg10
(lp524
I464
aI12
aI498
aI27
asg12
I0
sa(dp525
g5
I0
sg6
S'Unspecified'
p526
sg8
S'buoy'
p527
sg10
(lp528
I51
aI8
aI67
aI20
asg12
I0
sasS'58'
p529
(lp530
(dp531
g5
I0
sg6
S'Unspecified'
p532
sg8
S'boat'
p533
sg10
(lp534
I167
aI56
aI220
aI76
asg12
I0
sa(dp535
g5
I0
sg6
S'Unspecified'
p536
sg8
S'buoy'
p537
sg10
(lp538
I377
aI72
aI389
aI82
asg12
I0
sa(dp539
g5
I0
sg6
S'Unspecified'
p540
sg8
S'boat'
p541
sg10
(lp542
I111
aI55
aI134
aI62
asg12
I0
sa(dp543
g5
I0
sg6
S'Unspecified'
p544
sg8
S'boat'
p545
sg10
(lp546
I71
aI154
aI403
aI225
asg12
I0
sasS'55'
p547
(lp548
(dp549
g5
I0
sg6
S'Unspecified'
p550
sg8
S'boat'
p551
sg10
(lp552
I240
aI94
aI386
aI128
asg12
I0
sa(dp553
g5
I0
sg6
S'Unspecified'
p554
sg8
S'buoy'
p555
sg10
(lp556
I311
aI113
aI329
aI128
asg12
I0
sa(dp557
g5
I0
sg6
S'Unspecified'
p558
sg8
S'boat'
p559
sg10
(lp560
I471
aI118
aI498
aI135
asg12
I0
sa(dp561
g5
I0
sg6
S'Unspecified'
p562
sg8
S'boat'
p563
sg10
(lp564
I145
aI129
aI424
aI220
asg12
I0
sasS'54'
p565
(lp566
(dp567
g5
I0
sg6
S'Unspecified'
p568
sg8
S'boat'
p569
sg10
(lp570
I124
aI141
aI452
aI248
asg12
I0
sasS'57'
p571
(lp572
(dp573
g5
I0
sg6
S'Unspecified'
p574
sg8
S'boat'
p575
sg10
(lp576
I112
aI37
aI323
aI143
asg12
I0
sa(dp577
g5
I0
sg6
S'Unspecified'
p578
sg8
S'boat'
p579
sg10
(lp580
I63
aI159
aI498
aI224
asg12
I0
sa(dp581
g5
I0
sg6
S'Unspecified'
p582
sg8
S'person'
p583
sg10
(lp584
I314
aI147
aI345
aI185
asg12
I0
sasS'56'
p585
(lp586
(dp587
g5
I0
sg6
S'Unspecified'
p588
sg8
S'boat'
p589
sg10
(lp590
I48
aI116
aI440
aI227
asg12
I0
sa(dp591
g5
I0
sg6
S'Unspecified'
p592
sg8
S'boat'
p593
sg10
(lp594
I186
aI41
aI246
aI55
asg12
I0
sa(dp595
g5
I0
sg6
S'Unspecified'
p596
sg8
S'boat'
p597
sg10
(lp598
I262
aI27
aI324
aI46
asg12
I0
sa(dp599
g5
I0
sg6
S'Unspecified'
p600
sg8
S'buoy'
p601
sg10
(lp602
I405
aI41
aI419
aI54
asg12
I0
sasS'51'
p603
(lp604
(dp605
g5
I0
sg6
S'Unspecified'
p606
sg8
S'boat'
p607
sg10
(lp608
I24
aI21
aI123
aI51
asg12
I0
sa(dp609
g5
I0
sg6
S'Unspecified'
p610
sg8
S'buoy'
p611
sg10
(lp612
I229
aI51
aI253
aI70
asg12
I0
sa(dp613
g5
I0
sg6
S'Unspecified'
p614
sg8
S'boat'
p615
sg10
(lp616
I365
aI57
aI459
aI70
asg12
I0
sa(dp617
g5
I0
sg6
S'Unspecified'
p618
sg8
S'boat'
p619
sg10
(lp620
I81
aI110
aI416
aI204
asg12
I0
sasS'50'
p621
(lp622
(dp623
g5
I0
sg6
S'Unspecified'
p624
sg8
S'boat'
p625
sg10
(lp626
I51
aI90
aI422
aI208
asg12
I0
sasS'53'
p627
(lp628
(dp629
g5
I0
sg6
S'Unspecified'
p630
sg8
S'boat'
p631
sg10
(lp632
I125
aI127
aI439
aI234
asg12
I0
sa(dp633
g5
I0
sg6
S'Unspecified'
p634
sg8
S'buoy'
p635
sg10
(lp636
I227
aI106
aI244
aI119
asg12
I0
sa(dp637
g5
I0
sg6
S'Unspecified'
p638
sg8
S'boat'
p639
sg10
(lp640
I61
aI87
aI141
aI109
asg12
I0
sasS'52'
p641
(lp642
(dp643
g5
I0
sg6
S'Unspecified'
p644
sg8
S'boat'
p645
sg10
(lp646
I76
aI125
aI389
aI225
asg12
I0
sa(dp647
g5
I0
sg6
S'Unspecified'
p648
sg8
S'boat'
p649
sg10
(lp650
I133
aI107
aI198
aI121
asg12
I0
sa(dp651
g5
I0
sg6
S'Unspecified'
p652
sg8
S'buoy'
p653
sg10
(lp654
I265
aI101
aI281
aI115
asg12
I0
sasS'115'
p655
(lp656
(dp657
g5
I0
sg6
S'Unspecified'
p658
sg8
S'boat'
p659
sg10
(lp660
I0
aI197
aI435
aI257
asg12
I0
sa(dp661
g5
I0
sg6
S'Unspecified'
p662
sg8
S'boat'
p663
sg10
(lp664
I35
aI121
aI439
aI239
asg12
I0
sasS'114'
p665
(lp666
(dp667
g5
I0
sg6
S'Unspecified'
p668
sg8
S'boat'
p669
sg10
(lp670
I14
aI86
aI86
aI133
asg12
I0
sa(dp671
g5
I0
sg6
S'Unspecified'
p672
sg8
S'boat'
p673
sg10
(lp674
I74
aI81
aI183
aI124
asg12
I0
sa(dp675
g5
I0
sg6
S'Unspecified'
p676
sg8
S'buoy'
p677
sg10
(lp678
I225
aI102
aI240
aI114
asg12
I0
sa(dp679
g5
I0
sg6
S'Unspecified'
p680
sg8
S'buoy'
p681
sg10
(lp682
I442
aI97
aI454
aI109
asg12
I0
sa(dp683
g5
I0
sg6
S'Unspecified'
p684
sg8
S'boat'
p685
sg10
(lp686
I174
aI121
aI399
aI235
asg12
I0
sasS'88'
p687
(lp688
(dp689
g5
I0
sg6
S'Unspecified'
p690
sg8
S'boat'
p691
sg10
(lp692
I150
aI156
aI337
aI220
asg12
I0
sasS'89'
p693
(lp694
(dp695
g5
I0
sg6
S'Unspecified'
p696
sg8
S'boat'
p697
sg10
(lp698
I42
aI165
aI492
aI248
asg12
I0
sasS'111'
p699
(lp700
(dp701
g5
I0
sg6
S'Unspecified'
p702
sg8
S'boat'
p703
sg10
(lp704
I104
aI143
aI377
aI265
asg12
I0
sasS'110'
p705
(lp706
(dp707
g5
I0
sg6
S'Unspecified'
p708
sg8
S'boat'
p709
sg10
(lp710
I145
aI115
aI486
aI253
asg12
I0
sasS'113'
p711
(lp712
(dp713
g5
I0
sg6
S'Unspecified'
p714
sg8
S'boat'
p715
sg10
(lp716
I235
aI105
aI272
aI116
asg12
I0
sa(dp717
g5
I0
sg6
S'Unspecified'
p718
sg8
S'boat'
p719
sg10
(lp720
I73
aI163
aI105
aI188
asg12
I0
sa(dp721
g5
I0
sg6
S'Unspecified'
p722
sg8
S'boat'
p723
sg10
(lp724
I354
aI154
aI384
aI184
asg12
I0
sa(dp725
g5
I0
sg6
S'Unspecified'
p726
sg8
S'buoy'
p727
sg10
(lp728
I148
aI116
aI156
aI124
asg12
I0
sa(dp729
g5
I0
sg6
S'Unspecified'
p730
sg8
S'buoy'
p731
sg10
(lp732
I366
aI114
aI373
aI125
asg12
I0
sasS'112'
p733
(lp734
(dp735
g5
I0
sg6
S'Unspecified'
p736
sg8
S'boat'
p737
sg10
(lp738
I11
aI35
aI468
aI267
asg12
I0
sasS'82'
p739
(lp740
(dp741
g5
I0
sg6
S'Unspecified'
p742
sg8
S'boat'
p743
sg10
(lp744
I124
aI40
aI181
aI58
asg12
I0
sa(dp745
g5
I0
sg6
S'Unspecified'
p746
sg8
S'bird'
p747
sg10
(lp748
I192
aI89
aI237
aI115
asg12
I0
sa(dp749
g5
I0
sg6
S'Unspecified'
p750
sg8
S'bird'
p751
sg10
(lp752
I361
aI110
aI414
aI142
asg12
I0
sasS'83'
p753
(lp754
(dp755
g5
I0
sg6
S'Unspecified'
p756
sg8
S'boat'
p757
sg10
(lp758
I178
aI110
aI234
aI125
asg12
I0
sa(dp759
g5
I0
sg6
S'Unspecified'
p760
sg8
S'bird'
p761
sg10
(lp762
I243
aI168
aI278
aI201
asg12
I0
sa(dp763
g5
I0
sg6
S'Unspecified'
p764
sg8
S'bird'
p765
sg10
(lp766
I365
aI189
aI396
aI236
asg12
I0
sasS'80'
p767
(lp768
(dp769
g5
I0
sg6
S'Unspecified'
p770
sg8
S'other'
p771
sg10
(lp772
I243
aI263
aI486
aI279
asg12
I0
sa(dp773
g5
I0
sg6
S'Unspecified'
p774
sg8
S'boat'
p775
sg10
(lp776
I53
aI144
aI91
aI156
asg12
I0
sasS'81'
p777
(lp778
(dp779
g5
I0
sg6
S'Unspecified'
p780
sg8
S'buoy'
p781
sg10
(lp782
I161
aI139
aI191
aI171
asg12
I0
sasS'86'
p783
(lp784
sS'87'
p785
(lp786
(dp787
g5
I0
sg6
S'Unspecified'
p788
sg8
S'boat'
p789
sg10
(lp790
I182
aI143
aI214
aI154
asg12
I0
sasS'84'
p791
(lp792
(dp793
g5
I0
sg6
S'Unspecified'
p794
sg8
S'bird'
p795
sg10
(lp796
I73
aI125
aI110
aI181
asg12
I0
sa(dp797
g5
I0
sg6
S'Unspecified'
p798
sg8
S'bird'
p799
sg10
(lp800
I370
aI135
aI428
aI171
asg12
I0
sasS'85'
p801
(lp802
sS'02'
p803
(lp804
(dp805
g5
I0
sg6
S'Unspecified'
p806
sg8
S'boat'
p807
sg10
(lp808
I277
aI190
aI383
aI222
asg12
I0
sa(dp809
g5
I0
sg6
S'Unspecified'
p810
sg8
S'boat'
p811
sg10
(lp812
I405
aI149
aI437
aI163
asg12
I0
sa(dp813
g5
I0
sg6
S'Unspecified'
p814
sg8
S'boat'
p815
sg10
(lp816
I453
aI153
aI493
aI165
asg12
I0
sa(dp817
g5
I0
sg6
S'Unspecified'
p818
sg8
S'buoy'
p819
sg10
(lp820
I480
aI309
aI498
aI331
asg12
I0
sasS'03'
p821
(lp822
(dp823
g5
I0
sg6
S'Unspecified'
p824
sg8
S'boat'
p825
sg10
(lp826
I97
aI202
aI198
aI232
asg12
I0
sa(dp827
g5
I0
sg6
S'Unspecified'
p828
sg8
S'boat'
p829
sg10
(lp830
I52
aI164
aI82
aI175
asg12
I0
sa(dp831
g5
I0
sg6
S'Unspecified'
p832
sg8
S'boat'
p833
sg10
(lp834
I76
aI172
aI92
aI178
asg12
I0
sa(dp835
g5
I0
sg6
S'Unspecified'
p836
sg8
S'boat'
p837
sg10
(lp838
I157
aI170
aI194
aI181
asg12
I0
sa(dp839
g5
I0
sg6
S'Unspecified'
p840
sg8
S'boat'
p841
sg10
(lp842
I230
aI183
aI278
aI197
asg12
I0
sa(dp843
g5
I0
sg6
S'Unspecified'
p844
sg8
S'boat'
p845
sg10
(lp846
I275
aI181
aI314
aI190
asg12
I0
sa(dp847
g5
I0
sg6
S'Unspecified'
p848
sg8
S'buoy'
p849
sg10
(lp850
I301
aI196
aI319
aI213
asg12
I0
sa(dp851
g5
I0
sg6
S'Unspecified'
p852
sg8
S'boat'
p853
sg10
(lp854
I336
aI180
aI375
aI194
asg12
I0
sa(dp855
g5
I0
sg6
S'Unspecified'
p856
sg8
S'boat'
p857
sg10
(lp858
I348
aI193
aI392
aI214
asg12
I0
sa(dp859
g5
I0
sg6
S'Unspecified'
p860
sg8
S'buoy'
p861
sg10
(lp862
I175
aI316
aI221
aI331
asg12
I0
sasS'00'
p863
(lp864
(dp865
g5
I0
sg6
S'Unspecified'
p866
sg8
S'boat'
p867
sg10
(lp868
I63
aI153
aI285
aI225
asg12
I0
sa(dp869
g5
I0
sg6
S'Unspecified'
p870
sg8
S'buoy'
p871
sg10
(lp872
I306
aI122
aI315
aI131
asg12
I0
sa(dp873
g5
I0
sg6
S'Unspecified'
p874
sg8
S'boat'
p875
sg10
(lp876
I419
aI124
aI482
aI136
asg12
I0
sasS'01'
p877
(lp878
(dp879
g5
I0
sg6
S'Unspecified'
p880
sg8
S'boat'
p881
sg10
(lp882
I220
aI174
aI239
aI177
asg12
I0
sa(dp883
g5
I0
sg6
S'Unspecified'
p884
sg8
S'boat'
p885
sg10
(lp886
I280
aI175
aI298
aI180
asg12
I0
sa(dp887
g5
I0
sg6
S'Unspecified'
p888
sg8
S'buoy'
p889
sg10
(lp890
I354
aI187
aI363
aI195
asg12
I0
sa(dp891
g5
I0
sg6
S'Unspecified'
p892
sg8
S'buoy'
p893
sg10
(lp894
I298
aI243
aI322
aI268
asg12
I0
sa(dp895
g5
I0
sg6
S'Unspecified'
p896
sg8
S'boat'
p897
sg10
(lp898
I215
aI198
aI265
aI212
asg12
I0
sa(dp899
g5
I0
sg6
S'Unspecified'
p900
sg8
S'boat'
p901
sg10
(lp902
I287
aI193
aI324
aI203
asg12
I0
sa(dp903
g5
I0
sg6
S'Unspecified'
p904
sg8
S'boat'
p905
sg10
(lp906
I90
aI194
aI136
aI209
asg12
I0
sa(dp907
g5
I0
sg6
S'Unspecified'
p908
sg8
S'boat'
p909
sg10
(lp910
I0
aI221
aI57
aI236
asg12
I0
sa(dp911
g5
I0
sg6
S'Unspecified'
p912
sg8
S'buoy'
p913
sg10
(lp914
I55
aI174
aI61
aI179
asg12
I0
sasS'06'
p915
(lp916
(dp917
g5
I0
sg6
S'Unspecified'
p918
sg8
S'boat'
p919
sg10
(lp920
I145
aI146
aI305
aI191
asg12
I0
sa(dp921
g5
I0
sg6
S'Unspecified'
p922
sg8
S'boat'
p923
sg10
(lp924
I279
aI53
aI358
aI79
asg12
I0
sa(dp925
g5
I0
sg6
S'Unspecified'
p926
sg8
S'boat'
p927
sg10
(lp928
I421
aI61
aI492
aI77
asg12
I0
sa(dp929
g5
I0
sg6
S'Unspecified'
p930
sg8
S'boat'
p931
sg10
(lp932
I410
aI71
aI481
aI89
asg12
I0
sa(dp933
g5
I0
sg6
S'Unspecified'
p934
sg8
S'boat'
p935
sg10
(lp936
I484
aI92
aI498
aI125
asg12
I0
sasS'07'
p937
(lp938
(dp939
g5
I0
sg6
S'Unspecified'
p940
sg8
S'boat'
p941
sg10
(lp942
I74
aI157
aI202
aI192
asg12
I0
sa(dp943
g5
I0
sg6
S'Unspecified'
p944
sg8
S'boat'
p945
sg10
(lp946
I77
aI123
aI156
aI152
asg12
I0
sa(dp947
g5
I0
sg6
S'Unspecified'
p948
sg8
S'boat'
p949
sg10
(lp950
I364
aI111
aI449
aI139
asg12
I0
sa(dp951
g5
I0
sg6
S'Unspecified'
p952
sg8
S'boat'
p953
sg10
(lp954
I325
aI154
aI473
aI199
asg12
I0
sa(dp955
g5
I0
sg6
S'Unspecified'
p956
sg8
S'buoy'
p957
sg10
(lp958
I276
aI181
aI319
aI220
asg12
I0
sa(dp959
g5
I0
sg6
S'Unspecified'
p960
sg8
S'boat'
p961
sg10
(lp962
I184
aI199
aI300
aI247
asg12
I0
sasS'04'
p963
(lp964
(dp965
g5
I0
sg6
S'Unspecified'
p966
sg8
S'other'
p967
sg10
(lp968
I0
aI125
aI30
aI141
asg12
I0
sa(dp969
g5
I0
sg6
S'Unspecified'
p970
sg8
S'boat'
p971
sg10
(lp972
I23
aI123
aI38
aI128
asg12
I0
sa(dp973
g5
I0
sg6
S'Unspecified'
p974
sg8
S'buoy'
p975
sg10
(lp976
I131
aI127
aI143
aI138
asg12
I0
sa(dp977
g5
I0
sg6
S'Unspecified'
p978
sg8
S'boat'
p979
sg10
(lp980
I141
aI173
aI251
aI202
asg12
I0
sa(dp981
g5
I0
sg6
S'Unspecified'
p982
sg8
S'boat'
p983
sg10
(lp984
I8
aI222
aI142
aI250
asg12
I0
sa(dp985
g5
I0
sg6
S'Unspecified'
p986
sg8
S'person'
p987
sg10
(lp988
I0
aI193
aI22
aI247
asg12
I0
sasS'05'
p989
(lp990
(dp991
g5
I0
sg6
S'Unspecified'
p992
sg8
S'boat'
p993
sg10
(lp994
I85
aI88
aI123
aI105
asg12
I0
sa(dp995
g5
I0
sg6
S'Unspecified'
p996
sg8
S'boat'
p997
sg10
(lp998
I209
aI97
aI257
aI105
asg12
I0
sa(dp999
g5
I0
sg6
S'Unspecified'
p1000
sg8
S'boat'
p1001
sg10
(lp1002
I195
aI154
aI316
aI187
asg12
I0
sa(dp1003
g5
I0
sg6
S'Unspecified'
p1004
sg8
S'boat'
p1005
sg10
(lp1006
I0
aI157
aI91
aI184
asg12
I0
sasS'08'
p1007
(lp1008
(dp1009
g5
I0
sg6
S'Unspecified'
p1010
sg8
S'boat'
p1011
sg10
(lp1012
I192
aI202
aI295
aI231
asg12
I0
sa(dp1013
g5
I0
sg6
S'Unspecified'
p1014
sg8
S'boat'
p1015
sg10
(lp1016
I233
aI169
aI290
aI188
asg12
I0
sa(dp1017
g5
I0
sg6
S'Unspecified'
p1018
sg8
S'buoy'
p1019
sg10
(lp1020
I199
aI229
aI239
aI262
asg12
I0
sa(dp1021
g5
I0
sg6
S'Unspecified'
p1022
sg8
S'boat'
p1023
sg10
(lp1024
I390
aI224
aI406
aI256
asg12
I0
sa(dp1025
g5
I0
sg6
S'Unspecified'
p1026
sg8
S'boat'
p1027
sg10
(lp1028
I77
aI179
aI138
aI195
asg12
I0
sa(dp1029
g5
I0
sg6
S'Unspecified'
p1030
sg8
S'boat'
p1031
sg10
(lp1032
I14
aI166
aI87
aI183
asg12
I0
sasS'09'
p1033
(lp1034
(dp1035
g5
I0
sg6
S'Unspecified'
p1036
sg8
S'boat'
p1037
sg10
(lp1038
I76
aI183
aI144
aI201
asg12
I0
sa(dp1039
g5
I0
sg6
S'Unspecified'
p1040
sg8
S'boat'
p1041
sg10
(lp1042
I145
aI166
aI199
aI180
asg12
I0
sa(dp1043
g5
I0
sg6
S'Unspecified'
p1044
sg8
S'boat'
p1045
sg10
(lp1046
I244
aI170
aI285
aI179
asg12
I0
sa(dp1047
g5
I0
sg6
S'Unspecified'
p1048
sg8
S'boat'
p1049
sg10
(lp1050
I293
aI161
aI343
aI173
asg12
I0
sa(dp1051
g5
I0
sg6
S'Unspecified'
p1052
sg8
S'boat'
p1053
sg10
(lp1054
I296
aI179
aI364
aI198
asg12
I0
sa(dp1055
g5
I0
sg6
S'Unspecified'
p1056
sg8
S'boat'
p1057
sg10
(lp1058
I435
aI185
aI446
aI201
asg12
I0
sa(dp1059
g5
I0
sg6
S'Unspecified'
p1060
sg8
S'buoy'
p1061
sg10
(lp1062
I333
aI202
aI357
aI225
asg12
I0
sa(dp1063
g5
I0
sg6
S'Unspecified'
p1064
sg8
S'boat'
p1065
sg10
(lp1066
I202
aI222
aI287
aI245
asg12
I0
sasS'108'
p1067
(lp1068
(dp1069
g5
I0
sg6
S'Unspecified'
p1070
sg8
S'other'
p1071
sg10
(lp1072
I262
aI152
aI355
aI166
asg12
I0
sa(dp1073
g5
I0
sg6
S'Unspecified'
p1074
sg8
S'buoy'
p1075
sg10
(lp1076
I216
aI137
aI221
aI143
asg12
I0
sa(dp1077
g5
I0
sg6
S'Unspecified'
p1078
sg8
S'person'
p1079
sg10
(lp1080
I298
aI118
aI312
aI152
asg12
I0
sa(dp1081
g5
I0
sg6
S'Unspecified'
p1082
sg8
S'person'
p1083
sg10
(lp1084
I315
aI121
aI326
aI153
asg12
I0
sa(dp1085
g5
I0
sg6
S'Unspecified'
p1086
sg8
S'boat'
p1087
sg10
(lp1088
I78
aI204
aI296
aI267
asg12
I0
sasS'109'
p1089
(lp1090
(dp1091
g5
I0
sg6
S'Unspecified'
p1092
sg8
S'boat'
p1093
sg10
(lp1094
I92
aI149
aI325
aI207
asg12
I0
sasS'102'
p1095
(lp1096
(dp1097
g5
I0
sg6
S'Unspecified'
p1098
sg8
S'buoy'
p1099
sg10
(lp1100
I458
aI236
aI489
aI264
asg12
I0
sa(dp1101
g5
I0
sg6
S'Unspecified'
p1102
sg8
S'boat'
p1103
sg10
(lp1104
I90
aI200
aI221
aI232
asg12
I0
sa(dp1105
g5
I0
sg6
S'Unspecified'
p1106
sg8
S'other'
p1107
sg10
(lp1108
I66
aI189
aI437
aI226
asg12
I0
sa(dp1109
g5
I0
sg6
S'Unspecified'
p1110
sg8
S'person'
p1111
sg10
(lp1112
I72
aI128
aI111
aI194
asg12
I0
sa(dp1113
g5
I0
sg6
S'Unspecified'
p1114
sg8
S'person'
p1115
sg10
(lp1116
I103
aI125
aI126
aI195
asg12
I0
sa(dp1117
g5
I0
sg6
S'Unspecified'
p1118
sg8
S'person'
p1119
sg10
(lp1120
I124
aI119
aI143
aI189
asg12
I0
sa(dp1121
g5
I0
sg6
S'Unspecified'
p1122
sg8
S'person'
p1123
sg10
(lp1124
I168
aI129
aI189
aI199
asg12
I0
sa(dp1125
g5
I0
sg6
S'Unspecified'
p1126
sg8
S'person'
p1127
sg10
(lp1128
I187
aI129
aI211
aI198
asg12
I0
sa(dp1129
g5
I0
sg6
S'Unspecified'
p1130
sg8
S'person'
p1131
sg10
(lp1132
I208
aI121
aI236
aI188
asg12
I0
sa(dp1133
g5
I0
sg6
S'Unspecified'
p1134
sg8
S'person'
p1135
sg10
(lp1136
I239
aI141
aI277
aI207
asg12
I0
sa(dp1137
g5
I0
sg6
S'Unspecified'
p1138
sg8
S'person'
p1139
sg10
(lp1140
I268
aI122
aI306
aI201
asg12
I0
sa(dp1141
g5
I0
sg6
S'Unspecified'
p1142
sg8
S'person'
p1143
sg10
(lp1144
I308
aI125
aI337
aI200
asg12
I0
sa(dp1145
g5
I0
sg6
S'Unspecified'
p1146
sg8
S'person'
p1147
sg10
(lp1148
I336
aI129
aI356
aI199
asg12
I0
sa(dp1149
g5
I0
sg6
S'Unspecified'
p1150
sg8
S'person'
p1151
sg10
(lp1152
I349
aI121
aI376
aI201
asg12
I0
sa(dp1153
g5
I0
sg6
S'Unspecified'
p1154
sg8
S'person'
p1155
sg10
(lp1156
I367
aI117
aI398
aI206
asg12
I0
sa(dp1157
g5
I0
sg6
S'Unspecified'
p1158
sg8
S'person'
p1159
sg10
(lp1160
I392
aI118
aI426
aI206
asg12
I0
sasS'103'
p1161
(lp1162
(dp1163
g5
I0
sg6
S'Unspecified'
p1164
sg8
S'boat'
p1165
sg10
(lp1166
I46
aI86
aI437
aI224
asg12
I0
sasS'100'
p1167
(lp1168
(dp1169
g5
I0
sg6
S'Unspecified'
p1170
sg8
S'boat'
p1171
sg10
(lp1172
I417
aI177
aI485
aI189
asg12
I0
sa(dp1173
g5
I0
sg6
S'Unspecified'
p1174
sg8
S'boat'
p1175
sg10
(lp1176
I103
aI197
aI291
aI248
asg12
I0
sa(dp1177
g5
I0
sg6
S'Unspecified'
p1178
sg8
S'buoy'
p1179
sg10
(lp1180
I41
aI210
aI91
aI255
asg12
I0
sasS'101'
p1181
(lp1182
(dp1183
g5
I0
sg6
S'Unspecified'
p1184
sg8
S'other'
p1185
sg10
(lp1186
I63
aI189
aI192
aI205
asg12
I0
sa(dp1187
g5
I0
sg6
S'Unspecified'
p1188
sg8
S'person'
p1189
sg10
(lp1190
I122
aI137
aI140
aI189
asg12
I0
sa(dp1191
g5
I0
sg6
S'Unspecified'
p1192
sg8
S'person'
p1193
sg10
(lp1194
I140
aI132
aI160
aI187
asg12
I0
sa(dp1195
g5
I0
sg6
S'Unspecified'
p1196
sg8
S'buoy'
p1197
sg10
(lp1198
I346
aI179
aI355
aI188
asg12
I0
sa(dp1199
g5
I0
sg6
S'Unspecified'
p1200
sg8
S'boat'
p1201
sg10
(lp1202
I225
aI209
aI436
aI246
asg12
I0
sasS'106'
p1203
(lp1204
(dp1205
g5
I0
sg6
S'Unspecified'
p1206
sg8
S'boat'
p1207
sg10
(lp1208
I55
aI235
aI114
aI254
asg12
I0
sa(dp1209
g5
I0
sg6
S'Unspecified'
p1210
sg8
S'boat'
p1211
sg10
(lp1212
I370
aI231
aI451
aI249
asg12
I0
sa(dp1213
g5
I0
sg6
S'Unspecified'
p1214
sg8
S'person'
p1215
sg10
(lp1216
I421
aI217
aI439
aI248
asg12
I0
sa(dp1217
g5
I0
sg6
S'Unspecified'
p1218
sg8
S'person'
p1219
sg10
(lp1220
I384
aI216
aI402
aI241
asg12
I0
sasS'107'
p1221
(lp1222
(dp1223
g5
I0
sg6
S'Unspecified'
p1224
sg8
S'buoy'
p1225
sg10
(lp1226
I46
aI104
aI89
aI148
asg12
I0
sa(dp1227
g5
I0
sg6
S'Unspecified'
p1228
sg8
S'other'
p1229
sg10
(lp1230
I194
aI119
aI223
aI130
asg12
I0
sa(dp1231
g5
I0
sg6
S'Unspecified'
p1232
sg8
S'other'
p1233
sg10
(lp1234
I100
aI229
aI143
aI245
asg12
I0
sa(dp1235
g5
I0
sg6
S'Unspecified'
p1236
sg8
S'buoy'
p1237
sg10
(lp1238
I359
aI211
aI414
aI261
asg12
I0
sa(dp1239
g5
I0
sg6
S'Unspecified'
p1240
sg8
S'boat'
p1241
sg10
(lp1242
I201
aI140
aI327
aI177
asg12
I0
sasS'104'
p1243
(lp1244
(dp1245
g5
I0
sg6
S'Unspecified'
p1246
sg8
S'buoy'
p1247
sg10
(lp1248
I47
aI215
aI83
aI248
asg12
I0
sa(dp1249
g5
I0
sg6
S'Unspecified'
p1250
sg8
S'boat'
p1251
sg10
(lp1252
I24
aI221
aI359
aI306
asg12
I0
sasS'105'
p1253
(lp1254
(dp1255
g5
I0
sg6
S'Unspecified'
p1256
sg8
S'boat'
p1257
sg10
(lp1258
I2
aI68
aI130
aI115
asg12
I0
sa(dp1259
g5
I0
sg6
S'Unspecified'
p1260
sg8
S'boat'
p1261
sg10
(lp1262
I262
aI91
aI456
aI139
asg12
I0
sasS'39'
p1263
(lp1264
(dp1265
g5
I0
sg6
S'Unspecified'
p1266
sg8
S'boat'
p1267
sg10
(lp1268
I38
aI120
aI360
aI206
asg12
I0
sa(dp1269
g5
I0
sg6
S'Unspecified'
p1270
sg8
S'boat'
p1271
sg10
(lp1272
I179
aI81
aI216
aI88
asg12
I0
sa(dp1273
g5
I0
sg6
S'Unspecified'
p1274
sg8
S'boat'
p1275
sg10
(lp1276
I240
aI76
aI299
aI89
asg12
I0
sa(dp1277
g5
I0
sg6
S'Unspecified'
p1278
sg8
S'buoy'
p1279
sg10
(lp1280
I304
aI75
aI319
aI89
asg12
I0
sa(dp1281
g5
I0
sg6
S'Unspecified'
p1282
sg8
S'boat'
p1283
sg10
(lp1284
I321
aI79
aI359
aI86
asg12
I0
sasS'38'
p1285
(lp1286
(dp1287
g5
I0
sg6
S'Unspecified'
p1288
sg8
S'boat'
p1289
sg10
(lp1290
I0
aI174
aI142
aI214
asg12
I0
sa(dp1291
g5
I0
sg6
S'Unspecified'
p1292
sg8
S'boat'
p1293
sg10
(lp1294
I210
aI142
aI241
aI148
asg12
I0
sa(dp1295
g5
I0
sg6
S'Unspecified'
p1296
sg8
S'boat'
p1297
sg10
(lp1298
I337
aI135
aI371
aI144
asg12
I0
sa(dp1299
g5
I0
sg6
S'Unspecified'
p1300
sg8
S'buoy'
p1301
sg10
(lp1302
I371
aI142
aI379
aI150
asg12
I0
sa(dp1303
g5
I0
sg6
S'Unspecified'
p1304
sg8
S'boat'
p1305
sg10
(lp1306
I433
aI145
aI458
aI149
asg12
I0
sa(dp1307
g5
I0
sg6
S'Unspecified'
p1308
sg8
S'boat'
p1309
sg10
(lp1310
I466
aI133
aI498
aI146
asg12
I0
sa(dp1311
g5
I0
sg6
S'Unspecified'
p1312
sg8
S'boat'
p1313
sg10
(lp1314
I266
aI160
aI428
aI202
asg12
I0
sasS'33'
p1315
(lp1316
(dp1317
g5
I0
sg6
S'Unspecified'
p1318
sg8
S'buoy'
p1319
sg10
(lp1320
I398
aI281
aI498
aI331
asg12
I0
sa(dp1321
g5
I0
sg6
S'Unspecified'
p1322
sg8
S'boat'
p1323
sg10
(lp1324
I459
aI178
aI498
aI199
asg12
I0
sa(dp1325
g5
I0
sg6
S'Unspecified'
p1326
sg8
S'boat'
p1327
sg10
(lp1328
I318
aI185
aI408
aI211
asg12
I0
sa(dp1329
g5
I0
sg6
S'Unspecified'
p1330
sg8
S'boat'
p1331
sg10
(lp1332
I89
aI189
aI172
aI201
asg12
I0
sasS'32'
p1333
(lp1334
(dp1335
g5
I0
sg6
S'Unspecified'
p1336
sg8
S'other'
p1337
sg10
(lp1338
I240
aI195
aI248
aI202
asg12
I0
sa(dp1339
g5
I0
sg6
S'Unspecified'
p1340
sg8
S'boat'
p1341
sg10
(lp1342
I0
aI227
aI65
aI242
asg12
I0
sa(dp1343
g5
I0
sg6
S'Unspecified'
p1344
sg8
S'boat'
p1345
sg10
(lp1346
I144
aI210
aI254
aI234
asg12
I0
sa(dp1347
g5
I0
sg6
S'Unspecified'
p1348
sg8
S'boat'
p1349
sg10
(lp1350
I148
aI226
aI238
aI247
asg12
I0
sa(dp1351
g5
I0
sg6
S'Unspecified'
p1352
sg8
S'boat'
p1353
sg10
(lp1354
I280
aI216
aI405
aI246
asg12
I0
sa(dp1355
g5
I0
sg6
S'Unspecified'
p1356
sg8
S'buoy'
p1357
sg10
(lp1358
I426
aI221
aI455
aI246
asg12
I0
sasS'31'
p1359
(lp1360
(dp1361
g5
I0
sg6
S'Unspecified'
p1362
sg8
S'boat'
p1363
sg10
(lp1364
I205
aI184
aI350
aI240
asg12
I0
sasS'30'
p1365
(lp1366
(dp1367
g5
I0
sg6
S'Unspecified'
p1368
sg8
S'boat'
p1369
sg10
(lp1370
I212
aI144
aI357
aI204
asg12
I0
sa(dp1371
g5
I0
sg6
S'Unspecified'
p1372
sg8
S'buoy'
p1373
sg10
(lp1374
I270
aI162
aI342
aI217
asg12
I0
sasS'37'
p1375
(lp1376
(dp1377
g5
I0
sg6
S'Unspecified'
p1378
sg8
S'buoy'
p1379
sg10
(lp1380
I52
aI147
aI108
aI200
asg12
I0
sa(dp1381
g5
I0
sg6
S'Unspecified'
p1382
sg8
S'boat'
p1383
sg10
(lp1384
I114
aI151
aI282
aI199
asg12
I0
sa(dp1385
g5
I0
sg6
S'Unspecified'
p1386
sg8
S'boat'
p1387
sg10
(lp1388
I185
aI179
aI339
aI229
asg12
I0
sa(dp1389
g5
I0
sg6
S'Unspecified'
p1390
sg8
S'boat'
p1391
sg10
(lp1392
I361
aI155
aI486
aI203
asg12
I0
sasS'36'
p1393
(lp1394
(dp1395
g5
I0
sg6
S'Unspecified'
p1396
sg8
S'boat'
p1397
sg10
(lp1398
I152
aI151
aI376
aI201
asg12
I0
sa(dp1399
g5
I0
sg6
S'Unspecified'
p1400
sg8
S'boat'
p1401
sg10
(lp1402
I344
aI133
aI434
aI156
asg12
I0
sasS'35'
p1403
(lp1404
(dp1405
g5
I0
sg6
S'Unspecified'
p1406
sg8
S'boat'
p1407
sg10
(lp1408
I89
aI153
aI346
aI201
asg12
I0
sa(dp1409
g5
I0
sg6
S'Unspecified'
p1410
sg8
S'buoy'
p1411
sg10
(lp1412
I248
aI115
aI265
aI130
asg12
I0
sa(dp1413
g5
I0
sg6
S'Unspecified'
p1414
sg8
S'boat'
p1415
sg10
(lp1416
I285
aI106
aI342
aI131
asg12
I0
sasS'34'
p1417
(lp1418
(dp1419
g5
I0
sg6
S'Unspecified'
p1420
sg8
S'boat'
p1421
sg10
(lp1422
I27
aI127
aI158
aI167
asg12
I0
sa(dp1423
g5
I0
sg6
S'Unspecified'
p1424
sg8
S'boat'
p1425
sg10
(lp1426
I233
aI109
aI260
aI120
asg12
I0
sa(dp1427
g5
I0
sg6
S'Unspecified'
p1428
sg8
S'boat'
p1429
sg10
(lp1430
I369
aI113
aI407
aI124
asg12
I0
sa(dp1431
g5
I0
sg6
S'Unspecified'
p1432
sg8
S'buoy'
p1433
sg10
(lp1434
I262
aI119
aI271
aI127
asg12
I0
sa(dp1435
g5
I0
sg6
S'Unspecified'
p1436
sg8
S'boat'
p1437
sg10
(lp1438
I256
aI158
aI379
aI196
asg12
I0
sasS'60'
p1439
(lp1440
(dp1441
g5
I0
sg6
S'Unspecified'
p1442
sg8
S'boat'
p1443
sg10
(lp1444
I80
aI174
aI213
aI210
asg12
I0
sa(dp1445
g5
I0
sg6
S'Unspecified'
p1446
sg8
S'boat'
p1447
sg10
(lp1448
I224
aI156
aI342
aI198
asg12
I0
sa(dp1449
g5
I0
sg6
S'Unspecified'
p1450
sg8
S'boat'
p1451
sg10
(lp1452
I313
aI152
aI402
aI174
asg12
I0
sa(dp1453
g5
I0
sg6
S'Unspecified'
p1454
sg8
S'buoy'
p1455
sg10
(lp1456
I340
aI118
aI348
aI125
asg12
I0
sa(dp1457
g5
I0
sg6
S'Unspecified'
p1458
sg8
S'boat'
p1459
sg10
(lp1460
I374
aI114
aI411
aI125
asg12
I0
sa(dp1461
g5
I0
sg6
S'Unspecified'
p1462
sg8
S'boat'
p1463
sg10
(lp1464
I432
aI102
aI481
aI116
asg12
I0
sasS'61'
p1465
(lp1466
(dp1467
g5
I0
sg6
S'Unspecified'
p1468
sg8
S'other'
p1469
sg10
(lp1470
I0
aI27
aI44
aI103
asg12
I0
sa(dp1471
g5
I0
sg6
S'Unspecified'
p1472
sg8
S'boat'
p1473
sg10
(lp1474
I221
aI78
aI248
aI90
asg12
I0
sa(dp1475
g5
I0
sg6
S'Unspecified'
p1476
sg8
S'boat'
p1477
sg10
(lp1478
I180
aI144
aI300
aI216
asg12
I0
sasS'62'
p1479
(lp1480
(dp1481
g5
I0
sg6
S'Unspecified'
p1482
sg8
S'boat'
p1483
sg10
(lp1484
I79
aI0
aI126
aI15
asg12
I0
sa(dp1485
g5
I0
sg6
S'Unspecified'
p1486
sg8
S'boat'
p1487
sg10
(lp1488
I191
aI99
aI380
aI232
asg12
I0
sasS'63'
p1489
(lp1490
(dp1491
g5
I0
sg6
S'Unspecified'
p1492
sg8
S'boat'
p1493
sg10
(lp1494
I86
aI79
aI432
aI207
asg12
I0
sasS'64'
p1495
(lp1496
(dp1497
g5
I0
sg6
S'Unspecified'
p1498
sg8
S'boat'
p1499
sg10
(lp1500
I87
aI178
aI191
aI201
asg12
I0
sa(dp1501
g5
I0
sg6
S'Unspecified'
p1502
sg8
S'buoy'
p1503
sg10
(lp1504
I188
aI184
aI216
aI209
asg12
I0
sa(dp1505
g5
I0
sg6
S'Unspecified'
p1506
sg8
S'boat'
p1507
sg10
(lp1508
I262
aI117
aI496
aI167
asg12
I0
sa(dp1509
g5
I0
sg6
S'Unspecified'
p1510
sg8
S'boat'
p1511
sg10
(lp1512
I301
aI182
aI442
aI217
asg12
I0
sasS'65'
p1513
(lp1514
(dp1515
g5
I0
sg6
S'Unspecified'
p1516
sg8
S'boat'
p1517
sg10
(lp1518
I279
aI177
aI446
aI214
asg12
I0
sa(dp1519
g5
I0
sg6
S'Unspecified'
p1520
sg8
S'boat'
p1521
sg10
(lp1522
I273
aI221
aI353
aI244
asg12
I0
sa(dp1523
g5
I0
sg6
S'Unspecified'
p1524
sg8
S'boat'
p1525
sg10
(lp1526
I38
aI216
aI118
aI233
asg12
I0
sa(dp1527
g5
I0
sg6
S'Unspecified'
p1528
sg8
S'buoy'
p1529
sg10
(lp1530
I211
aI223
aI231
aI242
asg12
I0
sasS'66'
p1531
(lp1532
(dp1533
g5
I0
sg6
S'Unspecified'
p1534
sg8
S'person'
p1535
sg10
(lp1536
I58
aI115
aI64
aI132
asg12
I0
sa(dp1537
g5
I0
sg6
S'Unspecified'
p1538
sg8
S'person'
p1539
sg10
(lp1540
I160
aI121
aI164
aI138
asg12
I0
sa(dp1541
g5
I0
sg6
S'Unspecified'
p1542
sg8
S'boat'
p1543
sg10
(lp1544
I198
aI113
aI249
aI128
asg12
I0
sa(dp1545
g5
I0
sg6
S'Unspecified'
p1546
sg8
S'boat'
p1547
sg10
(lp1548
I20
aI138
aI59
aI148
asg12
I0
sa(dp1549
g5
I0
sg6
S'Unspecified'
p1550
sg8
S'boat'
p1551
sg10
(lp1552
I28
aI102
aI39
aI120
asg12
I0
sa(dp1553
g5
I0
sg6
S'Unspecified'
p1554
sg8
S'boat'
p1555
sg10
(lp1556
I133
aI183
aI204
aI210
asg12
I0
sa(dp1557
g5
I0
sg6
S'Unspecified'
p1558
sg8
S'boat'
p1559
sg10
(lp1560
I163
aI195
aI278
aI240
asg12
I0
sa(dp1561
g5
I0
sg6
S'Unspecified'
p1562
sg8
S'buoy'
p1563
sg10
(lp1564
I240
aI157
aI260
aI177
asg12
I0
sa(dp1565
g5
I0
sg6
S'Unspecified'
p1566
sg8
S'boat'
p1567
sg10
(lp1568
I275
aI152
aI335
aI173
asg12
I0
sasS'67'
p1569
(lp1570
(dp1571
g5
I0
sg6
S'Unspecified'
p1572
sg8
S'boat'
p1573
sg10
(lp1574
I103
aI144
aI175
aI165
asg12
I0
sa(dp1575
g5
I0
sg6
S'Unspecified'
p1576
sg8
S'boat'
p1577
sg10
(lp1578
I52
aI105
aI59
aI124
asg12
I0
sa(dp1579
g5
I0
sg6
S'Unspecified'
p1580
sg8
S'boat'
p1581
sg10
(lp1582
I125
aI98
aI189
aI116
asg12
I0
sa(dp1583
g5
I0
sg6
S'Unspecified'
p1584
sg8
S'buoy'
p1585
sg10
(lp1586
I176
aI153
aI204
aI178
asg12
I0
sa(dp1587
g5
I0
sg6
S'Unspecified'
p1588
sg8
S'boat'
p1589
sg10
(lp1590
I134
aI180
aI231
aI215
asg12
I0
sa(dp1591
g5
I0
sg6
S'Unspecified'
p1592
sg8
S'boat'
p1593
sg10
(lp1594
I294
aI180
aI364
aI234
asg12
I0
sasS'68'
p1595
(lp1596
(dp1597
g5
I0
sg6
S'Unspecified'
p1598
sg8
S'boat'
p1599
sg10
(lp1600
I228
aI138
aI364
aI176
asg12
I0
sa(dp1601
g5
I0
sg6
S'Unspecified'
p1602
sg8
S'person'
p1603
sg10
(lp1604
I457
aI40
aI483
aI116
asg12
I0
sa(dp1605
g5
I0
sg6
S'Unspecified'
p1606
sg8
S'other'
p1607
sg10
(lp1608
I399
aI115
aI498
aI124
asg12
I0
sasS'69'
p1609
(lp1610
(dp1611
g5
I0
sg6
S'Unspecified'
p1612
sg8
S'boat'
p1613
sg10
(lp1614
I215
aI203
aI365
aI234
asg12
I0
sasS'99'
p1615
(lp1616
(dp1617
g5
I0
sg6
S'Unspecified'
p1618
sg8
S'boat'
p1619
sg10
(lp1620
I222
aI171
aI308
aI186
asg12
I0
sa(dp1621
g5
I0
sg6
S'Unspecified'
p1622
sg8
S'buoy'
p1623
sg10
(lp1624
I305
aI171
aI332
aI195
asg12
I0
sa(dp1625
g5
I0
sg6
S'Unspecified'
p1626
sg8
S'boat'
p1627
sg10
(lp1628
I422
aI172
aI487
aI198
asg12
I0
sa(dp1629
g5
I0
sg6
S'Unspecified'
p1630
sg8
S'boat'
p1631
sg10
(lp1632
I358
aI235
aI457
aI268
asg12
I0
sa(dp1633
g5
I0
sg6
S'Unspecified'
p1634
sg8
S'boat'
p1635
sg10
(lp1636
I51
aI186
aI155
aI212
asg12
I0
sa(dp1637
g5
I0
sg6
S'Unspecified'
p1638
sg8
S'boat'
p1639
sg10
(lp1640
I177
aI208
aI207
aI224
asg12
I0
sa(dp1641
g5
I0
sg6
S'Unspecified'
p1642
sg8
S'boat'
p1643
sg10
(lp1644
I21
aI225
aI83
aI250
asg12
I0
sa(dp1645
g5
I0
sg6
S'Unspecified'
p1646
sg8
S'boat'
p1647
sg10
(lp1648
I82
aI219
aI171
aI242
asg12
I0
sasS'98'
p1649
(lp1650
(dp1651
g5
I0
sg6
S'Unspecified'
p1652
sg8
S'boat'
p1653
sg10
(lp1654
I296
aI242
aI388
aI269
asg12
I0
sa(dp1655
g5
I0
sg6
S'Unspecified'
p1656
sg8
S'boat'
p1657
sg10
(lp1658
I368
aI236
aI434
aI252
asg12
I0
sa(dp1659
g5
I0
sg6
S'Unspecified'
p1660
sg8
S'buoy'
p1661
sg10
(lp1662
I55
aI253
aI75
aI273
asg12
I0
sa(dp1663
g5
I0
sg6
S'Unspecified'
p1664
sg8
S'buoy'
p1665
sg10
(lp1666
I305
aI237
aI316
aI246
asg12
I0
sa(dp1667
g5
I0
sg6
S'Unspecified'
p1668
sg8
S'other'
p1669
sg10
(lp1670
I16
aI238
aI281
aI261
asg12
I0
sa(dp1671
g5
I0
sg6
S'Unspecified'
p1672
sg8
S'person'
p1673
sg10
(lp1674
I111
aI188
aI136
aI241
asg12
I0
sa(dp1675
g5
I0
sg6
S'Unspecified'
p1676
sg8
S'person'
p1677
sg10
(lp1678
I140
aI188
aI161
aI244
asg12
I0
sa(dp1679
g5
I0
sg6
S'Unspecified'
p1680
sg8
S'person'
p1681
sg10
(lp1682
I158
aI194
aI179
aI247
asg12
I0
sa(dp1683
g5
I0
sg6
S'Unspecified'
p1684
sg8
S'person'
p1685
sg10
(lp1686
I78
aI209
aI111
aI246
asg12
I0
sa(dp1687
g5
I0
sg6
S'Unspecified'
p1688
sg8
S'person'
p1689
sg10
(lp1690
I183
aI189
aI197
aI242
asg12
I0
sa(dp1691
g5
I0
sg6
S'Unspecified'
p1692
sg8
S'person'
p1693
sg10
(lp1694
I200
aI191
aI215
aI244
asg12
I0
sa(dp1695
g5
I0
sg6
S'Unspecified'
p1696
sg8
S'person'
p1697
sg10
(lp1698
I213
aI185
aI228
aI244
asg12
I0
sa(dp1699
g5
I0
sg6
S'Unspecified'
p1700
sg8
S'person'
p1701
sg10
(lp1702
I240
aI191
aI253
aI242
asg12
I0
sasS'91'
p1703
(lp1704
(dp1705
g5
I0
sg6
S'Unspecified'
p1706
sg8
S'buoy'
p1707
sg10
(lp1708
I3
aI63
aI14
aI73
asg12
I0
sa(dp1709
g5
I0
sg6
S'Unspecified'
p1710
sg8
S'other'
p1711
sg10
(lp1712
I331
aI79
aI479
aI101
asg12
I0
sa(dp1713
g5
I0
sg6
S'Unspecified'
p1714
sg8
S'person'
p1715
sg10
(lp1716
I372
aI14
aI395
aI78
asg12
I0
sa(dp1717
g5
I0
sg6
S'Unspecified'
p1718
sg8
S'person'
p1719
sg10
(lp1720
I408
aI17
aI429
aI79
asg12
I0
sa(dp1721
g5
I0
sg6
S'Unspecified'
p1722
sg8
S'boat'
p1723
sg10
(lp1724
I77
aI136
aI460
aI234
asg12
I0
sasS'90'
p1725
(lp1726
(dp1727
g5
I0
sg6
S'Unspecified'
p1728
sg8
S'buoy'
p1729
sg10
(lp1730
I117
aI141
aI149
aI190
asg12
I0
sa(dp1731
g5
I0
sg6
S'Unspecified'
p1732
sg8
S'other'
p1733
sg10
(lp1734
I153
aI134
aI171
aI144
asg12
I0
sa(dp1735
g5
I0
sg6
S'Unspecified'
p1736
sg8
S'buoy'
p1737
sg10
(lp1738
I387
aI103
aI395
aI112
asg12
I0
sa(dp1739
g5
I0
sg6
S'Unspecified'
p1740
sg8
S'boat'
p1741
sg10
(lp1742
I246
aI151
aI398
aI211
asg12
I0
sasS'93'
p1743
(lp1744
(dp1745
g5
I0
sg6
S'Unspecified'
p1746
sg8
S'person'
p1747
sg10
(lp1748
I190
aI229
aI226
aI269
asg12
I0
sa(dp1749
g5
I0
sg6
S'Unspecified'
p1750
sg8
S'boat'
p1751
sg10
(lp1752
I224
aI194
aI376
aI275
asg12
I0
sa(dp1753
g5
I0
sg6
S'Unspecified'
p1754
sg8
S'other'
p1755
sg10
(lp1756
I272
aI186
aI283
aI194
asg12
I0
sa(dp1757
g5
I0
sg6
S'Unspecified'
p1758
sg8
S'other'
p1759
sg10
(lp1760
I290
aI166
aI359
aI198
asg12
I0
sasS'92'
p1761
(lp1762
(dp1763
g5
I0
sg6
S'Unspecified'
p1764
sg8
S'boat'
p1765
sg10
(lp1766
I0
aI69
aI131
aI115
asg12
I0
sa(dp1767
g5
I0
sg6
S'Unspecified'
p1768
sg8
S'boat'
p1769
sg10
(lp1770
I261
aI85
aI457
aI147
asg12
I0
sasS'95'
p1771
(lp1772
(dp1773
g5
I0
sg6
S'Unspecified'
p1774
sg8
S'buoy'
p1775
sg10
(lp1776
I172
aI72
aI208
aI109
asg12
I0
sa(dp1777
g5
I0
sg6
S'Unspecified'
p1778
sg8
S'buoy'
p1779
sg10
(lp1780
I74
aI181
aI154
aI252
asg12
I0
sa(dp1781
g5
I0
sg6
S'Unspecified'
p1782
sg8
S'boat'
p1783
sg10
(lp1784
I14
aI147
aI495
aI309
asg12
I0
sasS'94'
p1785
(lp1786
(dp1787
g5
I0
sg6
S'Unspecified'
p1788
sg8
S'boat'
p1789
sg10
(lp1790
I88
aI141
aI108
aI151
asg12
I0
sa(dp1791
g5
I0
sg6
S'Unspecified'
p1792
sg8
S'boat'
p1793
sg10
(lp1794
I131
aI137
aI215
aI149
asg12
I0
sa(dp1795
g5
I0
sg6
S'Unspecified'
p1796
sg8
S'boat'
p1797
sg10
(lp1798
I293
aI153
aI389
aI209
asg12
I0
sasS'97'
p1799
(lp1800
(dp1801
g5
I0
sg6
S'Unspecified'
p1802
sg8
S'boat'
p1803
sg10
(lp1804
I260
aI152
aI380
aI229
asg12
I0
sasS'96'
p1805
(lp1806
(dp1807
g5
I0
sg6
S'Unspecified'
p1808
sg8
S'buoy'
p1809
sg10
(lp1810
I231
aI136
aI241
aI145
asg12
I0
sa(dp1811
g5
I0
sg6
S'Unspecified'
p1812
sg8
S'buoy'
p1813
sg10
(lp1814
I278
aI131
aI286
aI138
asg12
I0
sa(dp1815
g5
I0
sg6
S'Unspecified'
p1816
sg8
S'boat'
p1817
sg10
(lp1818
I216
aI126
aI253
aI134
asg12
I0
sa(dp1819
g5
I0
sg6
S'Unspecified'
p1820
sg8
S'boat'
p1821
sg10
(lp1822
I133
aI127
aI156
aI135
asg12
I0
sa(dp1823
g5
I0
sg6
S'Unspecified'
p1824
sg8
S'buoy'
p1825
sg10
(lp1826
I51
aI169
aI73
aI190
asg12
I0
sa(dp1827
g5
I0
sg6
S'Unspecified'
p1828
sg8
S'other'
p1829
sg10
(lp1830
I120
aI235
aI153
aI256
asg12
I0
sa(dp1831
g5
I0
sg6
S'Unspecified'
p1832
sg8
S'boat'
p1833
sg10
(lp1834
I292
aI172
aI357
aI189
asg12
I0
sa(dp1835
g5
I0
sg6
S'Unspecified'
p1836
sg8
S'boat'
p1837
sg10
(lp1838
I202
aI191
aI415
aI256
asg12
I0
sa(dp1839
g5
I0
sg6
S'Unspecified'
p1840
sg8
S'boat'
p1841
sg10
(lp1842
I423
aI123
aI446
aI129
asg12
I0
sa(dp1843
g5
I0
sg6
S'Unspecified'
p1844
sg8
S'buoy'
p1845
sg10
(lp1846
I317
aI125
aI323
aI131
asg12
I0
sasS'11'
p1847
(lp1848
(dp1849
g5
I0
sg6
S'Unspecified'
p1850
sg8
S'boat'
p1851
sg10
(lp1852
I0
aI154
aI64
aI171
asg12
I0
sa(dp1853
g5
I0
sg6
S'Unspecified'
p1854
sg8
S'boat'
p1855
sg10
(lp1856
I45
aI182
aI123
aI208
asg12
I0
sa(dp1857
g5
I0
sg6
S'Unspecified'
p1858
sg8
S'boat'
p1859
sg10
(lp1860
I66
aI168
aI155
aI186
asg12
I0
sa(dp1861
g5
I0
sg6
S'Unspecified'
p1862
sg8
S'boat'
p1863
sg10
(lp1864
I362
aI172
aI457
aI191
asg12
I0
sasS'10'
p1865
(lp1866
(dp1867
g5
I0
sg6
S'Unspecified'
p1868
sg8
S'boat'
p1869
sg10
(lp1870
I88
aI131
aI169
aI156
asg12
I0
sa(dp1871
g5
I0
sg6
S'Unspecified'
p1872
sg8
S'boat'
p1873
sg10
(lp1874
I0
aI149
aI33
aI170
asg12
I0
sa(dp1875
g5
I0
sg6
S'Unspecified'
p1876
sg8
S'boat'
p1877
sg10
(lp1878
I164
aI157
aI274
aI187
asg12
I0
sa(dp1879
g5
I0
sg6
S'Unspecified'
p1880
sg8
S'boat'
p1881
sg10
(lp1882
I432
aI170
aI448
aI195
asg12
I0
sa(dp1883
g5
I0
sg6
S'Unspecified'
p1884
sg8
S'buoy'
p1885
sg10
(lp1886
I281
aI199
aI320
aI239
asg12
I0
sa(dp1887
g5
I0
sg6
S'Unspecified'
p1888
sg8
S'boat'
p1889
sg10
(lp1890
I187
aI231
aI328
aI275
asg12
I0
sasS'13'
p1891
(lp1892
(dp1893
g5
I0
sg6
S'Unspecified'
p1894
sg8
S'buoy'
p1895
sg10
(lp1896
I110
aI205
aI129
aI222
asg12
I0
sa(dp1897
g5
I0
sg6
S'Unspecified'
p1898
sg8
S'boat'
p1899
sg10
(lp1900
I192
aI195
aI246
aI209
asg12
I0
sa(dp1901
g5
I0
sg6
S'Unspecified'
p1902
sg8
S'boat'
p1903
sg10
(lp1904
I276
aI182
aI323
aI195
asg12
I0
sa(dp1905
g5
I0
sg6
S'Unspecified'
p1906
sg8
S'boat'
p1907
sg10
(lp1908
I284
aI198
aI342
aI210
asg12
I0
sa(dp1909
g5
I0
sg6
S'Unspecified'
p1910
sg8
S'boat'
p1911
sg10
(lp1912
I355
aI196
aI423
aI206
asg12
I0
sasS'12'
p1913
(lp1914
(dp1915
g5
I0
sg6
S'Unspecified'
p1916
sg8
S'boat'
p1917
sg10
(lp1918
I261
aI204
aI315
aI221
asg12
I0
sa(dp1919
g5
I0
sg6
S'Unspecified'
p1920
sg8
S'boat'
p1921
sg10
(lp1922
I333
aI192
aI410
aI208
asg12
I0
sa(dp1923
g5
I0
sg6
S'Unspecified'
p1924
sg8
S'boat'
p1925
sg10
(lp1926
I118
aI181
aI178
aI195
asg12
I0
sa(dp1927
g5
I0
sg6
S'Unspecified'
p1928
sg8
S'boat'
p1929
sg10
(lp1930
I165
aI194
aI232
aI208
asg12
I0
sa(dp1931
g5
I0
sg6
S'Unspecified'
p1932
sg8
S'boat'
p1933
sg10
(lp1934
I6
aI190
aI70
aI206
asg12
I0
sasS'15'
p1935
(lp1936
(dp1937
g5
I0
sg6
S'Unspecified'
p1938
sg8
S'buoy'
p1939
sg10
(lp1940
I342
aI45
aI389
aI89
asg12
I0
sa(dp1941
g5
I0
sg6
S'Unspecified'
p1942
sg8
S'boat'
p1943
sg10
(lp1944
I377
aI61
aI478
aI103
asg12
I0
sa(dp1945
g5
I0
sg6
S'Unspecified'
p1946
sg8
S'boat'
p1947
sg10
(lp1948
I38
aI83
aI316
aI187
asg12
I0
sa(dp1949
g5
I0
sg6
S'Unspecified'
p1950
sg8
S'boat'
p1951
sg10
(lp1952
I46
aI168
aI337
aI273
asg12
I0
sasS'14'
p1953
(lp1954
(dp1955
g5
I0
sg6
S'Unspecified'
p1956
sg8
S'boat'
p1957
sg10
(lp1958
I34
aI114
aI495
aI246
asg12
I0
sasS'17'
p1959
(lp1960
(dp1961
g5
I0
sg6
S'Unspecified'
p1962
sg8
S'boat'
p1963
sg10
(lp1964
I173
aI126
aI314
aI157
asg12
I0
sa(dp1965
g5
I0
sg6
S'Unspecified'
p1966
sg8
S'boat'
p1967
sg10
(lp1968
I295
aI125
aI393
aI159
asg12
I0
sasS'16'
p1969
(lp1970
(dp1971
g5
I0
sg6
S'Unspecified'
p1972
sg8
S'boat'
p1973
sg10
(lp1974
I227
aI161
aI368
aI194
asg12
I0
sasS'19'
p1975
(lp1976
(dp1977
g5
I0
sg6
S'Unspecified'
p1978
sg8
S'boat'
p1979
sg10
(lp1980
I237
aI76
aI357
aI110
asg12
I0
sa(dp1981
g5
I0
sg6
S'Unspecified'
p1982
sg8
S'buoy'
p1983
sg10
(lp1984
I146
aI208
aI296
aI331
asg12
I0
sasS'18'
p1985
(lp1986
(dp1987
g5
I0
sg6
S'Unspecified'
p1988
sg8
S'person'
p1989
sg10
(lp1990
I50
aI153
aI72
aI187
asg12
I0
sa(dp1991
g5
I0
sg6
S'Unspecified'
p1992
sg8
S'boat'
p1993
sg10
(lp1994
I0
aI162
aI134
aI205
asg12
I0
sa(dp1995
g5
I0
sg6
S'Unspecified'
p1996
sg8
S'boat'
p1997
sg10
(lp1998
I166
aI207
aI315
aI234
asg12
I0
sa(dp1999
g5
I0
sg6
S'Unspecified'
p2000
sg8
S'boat'
p2001
sg10
(lp2002
I344
aI199
aI437
aI236
asg12
I0
sasS'117'
p2003
(lp2004
(dp2005
g5
I0
sg6
S'Unspecified'
p2006
sg8
S'boat'
p2007
sg10
(lp2008
I130
aI72
aI470
aI200
asg12
I0
sasS'116'
p2009
(lp2010
(dp2011
g5
I0
sg6
S'Unspecified'
p2012
sg8
S'boat'
p2013
sg10
(lp2014
I113
aI101
aI473
aI231
asg12
I0
sa(dp2015
g5
I0
sg6
S'Unspecified'
p2016
sg8
S'buoy'
p2017
sg10
(lp2018
I379
aI228
aI449
aI294
asg12
I0
sasS'48'
p2019
(lp2020
(dp2021
g5
I0
sg6
S'Unspecified'
p2022
sg8
S'boat'
p2023
sg10
(lp2024
I0
aI115
aI370
aI215
asg12
I0
sa(dp2025
g5
I0
sg6
S'Unspecified'
p2026
sg8
S'boat'
p2027
sg10
(lp2028
I104
aI24
aI175
aI47
asg12
I0
sa(dp2029
g5
I0
sg6
S'Unspecified'
p2030
sg8
S'boat'
p2031
sg10
(lp2032
I304
aI38
aI376
aI51
asg12
I0
sasS'49'
p2033
(lp2034
(dp2035
g5
I0
sg6
S'Unspecified'
p2036
sg8
S'boat'
p2037
sg10
(lp2038
I0
aI46
aI56
aI54
asg12
I0
sa(dp2039
g5
I0
sg6
S'Unspecified'
p2040
sg8
S'boat'
p2041
sg10
(lp2042
I293
aI28
aI361
aI48
asg12
I0
sa(dp2043
g5
I0
sg6
S'Unspecified'
p2044
sg8
S'buoy'
p2045
sg10
(lp2046
I437
aI44
aI456
aI60
asg12
I0
sa(dp2047
g5
I0
sg6
S'Unspecified'
p2048
sg8
S'boat'
p2049
sg10
(lp2050
I104
aI107
aI413
aI191
asg12
I0
sasS'46'
p2051
(lp2052
(dp2053
g5
I0
sg6
S'Unspecified'
p2054
sg8
S'boat'
p2055
sg10
(lp2056
I65
aI160
aI442
aI254
asg12
I0
sasS'47'
p2057
(lp2058
(dp2059
g5
I0
sg6
S'Unspecified'
p2060
sg8
S'boat'
p2061
sg10
(lp2062
I0
aI15
aI40
aI32
asg12
I0
sa(dp2063
g5
I0
sg6
S'Unspecified'
p2064
sg8
S'boat'
p2065
sg10
(lp2066
I194
aI26
aI263
aI38
asg12
I0
sa(dp2067
g5
I0
sg6
S'Unspecified'
p2068
sg8
S'boat'
p2069
sg10
(lp2070
I412
aI7
aI497
aI32
asg12
I0
sa(dp2071
g5
I0
sg6
S'Unspecified'
p2072
sg8
S'boat'
p2073
sg10
(lp2074
I92
aI94
aI415
aI169
asg12
I0
sasS'44'
p2075
(lp2076
(dp2077
g5
I0
sg6
S'Unspecified'
p2078
sg8
S'buoy'
p2079
sg10
(lp2080
I242
aI95
aI259
aI111
asg12
I0
sa(dp2081
g5
I0
sg6
S'Unspecified'
p2082
sg8
S'boat'
p2083
sg10
(lp2084
I470
aI77
aI498
aI104
asg12
I0
sa(dp2085
g5
I0
sg6
S'Unspecified'
p2086
sg8
S'boat'
p2087
sg10
(lp2088
I70
aI150
aI451
aI256
asg12
I0
sasS'45'
p2089
(lp2090
(dp2091
g5
I0
sg6
S'Unspecified'
p2092
sg8
S'boat'
p2093
sg10
(lp2094
I312
aI92
aI374
aI107
asg12
I0
sa(dp2095
g5
I0
sg6
S'Unspecified'
p2096
sg8
S'buoy'
p2097
sg10
(lp2098
I450
aI117
aI470
aI133
asg12
I0
sa(dp2099
g5
I0
sg6
S'Unspecified'
p2100
sg8
S'boat'
p2101
sg10
(lp2102
I96
aI174
aI346
aI233
asg12
I0
sasS'42'
p2103
(lp2104
(dp2105
g5
I0
sg6
S'Unspecified'
p2106
sg8
S'boat'
p2107
sg10
(lp2108
I0
aI30
aI37
aI52
asg12
I0
sa(dp2109
g5
I0
sg6
S'Unspecified'
p2110
sg8
S'boat'
p2111
sg10
(lp2112
I41
aI39
aI104
aI59
asg12
I0
sa(dp2113
g5
I0
sg6
S'Unspecified'
p2114
sg8
S'buoy'
p2115
sg10
(lp2116
I486
aI63
aI498
aI79
asg12
I0
sa(dp2117
g5
I0
sg6
S'Unspecified'
p2118
sg8
S'boat'
p2119
sg10
(lp2120
I70
aI138
aI383
aI234
asg12
I0
sasS'43'
p2121
(lp2122
(dp2123
g5
I0
sg6
S'Unspecified'
p2124
sg8
S'boat'
p2125
sg10
(lp2126
I76
aI144
aI414
aI246
asg12
I0
sa(dp2127
g5
I0
sg6
S'Unspecified'
p2128
sg8
S'boat'
p2129
sg10
(lp2130
I53
aI85
aI106
aI101
asg12
I0
sa(dp2131
g5
I0
sg6
S'Unspecified'
p2132
sg8
S'boat'
p2133
sg10
(lp2134
I158
aI96
aI219
aI110
asg12
I0
sa(dp2135
g5
I0
sg6
S'Unspecified'
p2136
sg8
S'buoy'
p2137
sg10
(lp2138
I179
aI98
aI194
aI110
asg12
I0
sa(dp2139
g5
I0
sg6
S'Unspecified'
p2140
sg8
S'boat'
p2141
sg10
(lp2142
I390
aI73
aI466
aI99
asg12
I0
sa(dp2143
g5
I0
sg6
S'Unspecified'
p2144
sg8
S'boat'
p2145
sg10
(lp2146
I481
aI89
aI498
aI103
asg12
I0
sasS'40'
p2147
(lp2148
(dp2149
g5
I0
sg6
S'Unspecified'
p2150
sg8
S'other'
p2151
sg10
(lp2152
I81
aI264
aI498
aI331
asg12
I0
sa(dp2153
g5
I0
sg6
S'Unspecified'
p2154
sg8
S'buoy'
p2155
sg10
(lp2156
I470
aI175
aI498
aI208
asg12
I0
sa(dp2157
g5
I0
sg6
S'Unspecified'
p2158
sg8
S'boat'
p2159
sg10
(lp2160
I264
aI170
aI407
aI203
asg12
I0
sasS'41'
p2161
(lp2162
(dp2163
g5
I0
sg6
S'Unspecified'
p2164
sg8
S'boat'
p2165
sg10
(lp2166
I75
aI146
aI344
aI228
asg12
I0
sa(dp2167
g5
I0
sg6
S'Unspecified'
p2168
sg8
S'boat'
p2169
sg10
(lp2170
I94
aI81
aI145
aI94
asg12
I0
sa(dp2171
g5
I0
sg6
S'Unspecified'
p2172
sg8
S'buoy'
p2173
sg10
(lp2174
I245
aI96
aI258
aI106
asg12
I0
sa(dp2175
g5
I0
sg6
S'Unspecified'
p2176
sg8
S'boat'
p2177
sg10
(lp2178
I416
aI81
aI486
aI103
asg12
I0
sasS'146'
p2179
(lp2180
(dp2181
g5
I0
sg6
S'Unspecified'
p2182
sg8
S'other'
p2183
sg10
(lp2184
I105
aI157
aI498
aI279
asg12
I0
sa(dp2185
g5
I0
sg6
S'Unspecified'
p2186
sg8
S'boat'
p2187
sg10
(lp2188
I104
aI146
aI163
aI170
asg12
I0
sa(dp2189
g5
I0
sg6
S'Unspecified'
p2190
sg8
S'boat'
p2191
sg10
(lp2192
I205
aI126
aI315
aI156
asg12
I0
sasS'147'
p2193
(lp2194
(dp2195
g5
I0
sg6
S'Unspecified'
p2196
sg8
S'boat'
p2197
sg10
(lp2198
I52
aI107
aI161
aI148
asg12
I0
sa(dp2199
g5
I0
sg6
S'Unspecified'
p2200
sg8
S'boat'
p2201
sg10
(lp2202
I0
aI145
aI75
aI230
asg12
I0
sa(dp2203
g5
I0
sg6
S'Unspecified'
p2204
sg8
S'other'
p2205
sg10
(lp2206
I105
aI158
aI498
aI278
asg12
I0
sasS'144'
p2207
(lp2208
(dp2209
g5
I0
sg6
S'Unspecified'
p2210
sg8
S'buoy'
p2211
sg10
(lp2212
I161
aI114
aI187
aI140
asg12
I0
sa(dp2213
g5
I0
sg6
S'Unspecified'
p2214
sg8
S'boat'
p2215
sg10
(lp2216
I205
aI114
aI237
aI124
asg12
I0
sa(dp2217
g5
I0
sg6
S'Unspecified'
p2218
sg8
S'boat'
p2219
sg10
(lp2220
I258
aI114
aI295
aI126
asg12
I0
sa(dp2221
g5
I0
sg6
S'Unspecified'
p2222
sg8
S'other'
p2223
sg10
(lp2224
I101
aI156
aI498
aI277
asg12
I0
sasS'145'
p2225
(lp2226
(dp2227
g5
I0
sg6
S'Unspecified'
p2228
sg8
S'boat'
p2229
sg10
(lp2230
I2
aI121
aI102
aI150
asg12
I0
sa(dp2231
g5
I0
sg6
S'Unspecified'
p2232
sg8
S'boat'
p2233
sg10
(lp2234
I114
aI121
aI236
aI163
asg12
I0
sa(dp2235
g5
I0
sg6
S'Unspecified'
p2236
sg8
S'buoy'
p2237
sg10
(lp2238
I259
aI112
aI267
aI119
asg12
I0
sa(dp2239
g5
I0
sg6
S'Unspecified'
p2240
sg8
S'other'
p2241
sg10
(lp2242
I102
aI160
aI498
aI277
asg12
I0
sasS'142'
p2243
(lp2244
(dp2245
g5
I0
sg6
S'Unspecified'
p2246
sg8
S'other'
p2247
sg10
(lp2248
I116
aI251
aI363
aI372
asg12
I0
sa(dp2249
g5
I0
sg6
S'Unspecified'
p2250
sg8
S'boat'
p2251
sg10
(lp2252
I269
aI160
aI498
aI288
asg12
I0
sa(dp2253
g5
I0
sg6
S'Unspecified'
p2254
sg8
S'person'
p2255
sg10
(lp2256
I300
aI110
aI355
aI204
asg12
I0
sa(dp2257
g5
I0
sg6
S'Unspecified'
p2258
sg8
S'person'
p2259
sg10
(lp2260
I348
aI92
aI389
aI184
asg12
I0
sa(dp2261
g5
I0
sg6
S'Unspecified'
p2262
sg8
S'person'
p2263
sg10
(lp2264
I403
aI88
aI491
aI224
asg12
I0
sasS'143'
p2265
(lp2266
(dp2267
g5
I0
sg6
S'Unspecified'
p2268
sg8
S'other'
p2269
sg10
(lp2270
I126
aI155
aI498
aI279
asg12
I0
sa(dp2271
g5
I0
sg6
S'Unspecified'
p2272
sg8
S'boat'
p2273
sg10
(lp2274
I50
aI144
aI114
aI161
asg12
I0
sa(dp2275
g5
I0
sg6
S'Unspecified'
p2276
sg8
S'boat'
p2277
sg10
(lp2278
I144
aI70
aI304
aI124
asg12
I0
sa(dp2279
g5
I0
sg6
S'Unspecified'
p2280
sg8
S'boat'
p2281
sg10
(lp2282
I11
aI148
aI40
aI155
asg12
I0
sasS'140'
p2283
(lp2284
(dp2285
g5
I0
sg6
S'Unspecified'
p2286
sg8
S'boat'
p2287
sg10
(lp2288
I262
aI188
aI309
aI208
asg12
I0
sasS'141'
p2289
(lp2290
(dp2291
g5
I0
sg6
S'Unspecified'
p2292
sg8
S'boat'
p2293
sg10
(lp2294
I146
aI180
aI238
aI210
asg12
I0
sa(dp2295
g5
I0
sg6
S'Unspecified'
p2296
sg8
S'other'
p2297
sg10
(lp2298
I244
aI311
aI382
aI372
asg12
I0
sasS'148'
p2299
(lp2300
(dp2301
g5
I0
sg6
S'Unspecified'
p2302
sg8
S'boat'
p2303
sg10
(lp2304
I0
aI118
aI59
aI171
asg12
I0
sa(dp2305
g5
I0
sg6
S'Unspecified'
p2306
sg8
S'boat'
p2307
sg10
(lp2308
I243
aI144
aI476
aI238
asg12
I0
sa(dp2309
g5
I0
sg6
S'Unspecified'
p2310
sg8
S'boat'
p2311
sg10
(lp2312
I113
aI114
aI243
aI176
asg12
I0
sasS'149'
p2313
(lp2314
(dp2315
g5
I0
sg6
S'Unspecified'
p2316
sg8
S'boat'
p2317
sg10
(lp2318
I26
aI204
aI86
aI222
asg12
I0
sa(dp2319
g5
I0
sg6
S'Unspecified'
p2320
sg8
S'buoy'
p2321
sg10
(lp2322
I373
aI172
aI376
aI176
asg12
I0
sa(dp2323
g5
I0
sg6
S'Unspecified'
p2324
sg8
S'boat'
p2325
sg10
(lp2326
I404
aI210
aI464
aI241
asg12
I0
sa(dp2327
g5
I0
sg6
S'Unspecified'
p2328
sg8
S'other'
p2329
sg10
(lp2330
I123
aI213
aI336
aI233
asg12
I0
sa(dp2331
g5
I0
sg6
S'Unspecified'
p2332
sg8
S'person'
p2333
sg10
(lp2334
I159
aI167
aI175
aI215
asg12
I0
sa(dp2335
g5
I0
sg6
S'Unspecified'
p2336
sg8
S'other'
p2337
sg10
(lp2338
I117
aI98
aI146
aI213
asg12
I0
sa(dp2339
g5
I0
sg6
S'Unspecified'
p2340
sg8
S'other'
p2341
sg10
(lp2342
I195
aI88
aI209
aI215
asg12
I0
sa(dp2343
g5
I0
sg6
S'Unspecified'
p2344
sg8
S'other'
p2345
sg10
(lp2346
I238
aI92
aI263
aI217
asg12
I0
sa(dp2347
g5
I0
sg6
S'Unspecified'
p2348
sg8
S'person'
p2349
sg10
(lp2350
I276
aI172
aI286
aI216
asg12
I0
sa(dp2351
g5
I0
sg6
S'Unspecified'
p2352
sg8
S'person'
p2353
sg10
(lp2354
I286
aI178
aI295
aI217
asg12
I0
sa(dp2355
g5
I0
sg6
S'Unspecified'
p2356
sg8
S'person'
p2357
sg10
(lp2358
I229
aI169
aI242
aI214
asg12
I0
sa(dp2359
g5
I0
sg6
S'Unspecified'
p2360
sg8
S'person'
p2361
sg10
(lp2362
I213
aI175
aI226
aI215
asg12
I0
sa(dp2363
g5
I0
sg6
S'Unspecified'
p2364
sg8
S'person'
p2365
sg10
(lp2366
I176
aI169
aI196
aI217
asg12
I0
sasS'77'
p2367
(lp2368
(dp2369
g5
I0
sg6
S'Unspecified'
p2370
sg8
S'boat'
p2371
sg10
(lp2372
I40
aI128
aI352
aI209
asg12
I0
sa(dp2373
g5
I0
sg6
S'Unspecified'
p2374
sg8
S'buoy'
p2375
sg10
(lp2376
I174
aI92
aI191
aI105
asg12
I0
sasS'76'
p2377
(lp2378
(dp2379
g5
I0
sg6
S'Unspecified'
p2380
sg8
S'boat'
p2381
sg10
(lp2382
I0
aI104
aI21
aI113
asg12
I0
sa(dp2383
g5
I0
sg6
S'Unspecified'
p2384
sg8
S'buoy'
p2385
sg10
(lp2386
I128
aI104
aI143
aI116
asg12
I0
sa(dp2387
g5
I0
sg6
S'Unspecified'
p2388
sg8
S'boat'
p2389
sg10
(lp2390
I123
aI137
aI466
aI222
asg12
I0
sasS'75'
p2391
(lp2392
(dp2393
g5
I0
sg6
S'Unspecified'
p2394
sg8
S'boat'
p2395
sg10
(lp2396
I30
aI85
aI56
aI95
asg12
I0
sa(dp2397
g5
I0
sg6
S'Unspecified'
p2398
sg8
S'boat'
p2399
sg10
(lp2400
I221
aI93
aI296
aI106
asg12
I0
sa(dp2401
g5
I0
sg6
S'Unspecified'
p2402
sg8
S'boat'
p2403
sg10
(lp2404
I45
aI134
aI420
aI226
asg12
I0
sasS'74'
p2405
(lp2406
(dp2407
g5
I0
sg6
S'Unspecified'
p2408
sg8
S'boat'
p2409
sg10
(lp2410
I0
aI91
aI388
aI204
asg12
I0
sa(dp2411
g5
I0
sg6
S'Unspecified'
p2412
sg8
S'boat'
p2413
sg10
(lp2414
I219
aI124
aI340
aI236
asg12
I0
sasS'73'
p2415
(lp2416
(dp2417
g5
I0
sg6
S'Unspecified'
p2418
sg8
S'boat'
p2419
sg10
(lp2420
I0
aI124
aI307
aI245
asg12
I0
sa(dp2421
g5
I0
sg6
S'Unspecified'
p2422
sg8
S'boat'
p2423
sg10
(lp2424
I194
aI89
aI258
aI112
asg12
I0
sasS'72'
p2425
(lp2426
(dp2427
g5
I0
sg6
S'Unspecified'
p2428
sg8
S'boat'
p2429
sg10
(lp2430
I52
aI125
aI307
aI234
asg12
I0
sasS'71'
p2431
(lp2432
(dp2433
g5
I0
sg6
S'Unspecified'
p2434
sg8
S'boat'
p2435
sg10
(lp2436
I196
aI121
aI331
aI160
asg12
I0
sasS'70'
p2437
(lp2438
(dp2439
g5
I0
sg6
S'Unspecified'
p2440
sg8
S'boat'
p2441
sg10
(lp2442
I195
aI137
aI352
aI174
asg12
I0
sasS'79'
p2443
(lp2444
(dp2445
g5
I0
sg6
S'Unspecified'
p2446
sg8
S'boat'
p2447
sg10
(lp2448
I58
aI183
aI139
aI225
asg12
I0
sasS'78'
p2449
(lp2450
(dp2451
g5
I0
sg6
S'Unspecified'
p2452
sg8
S'boat'
p2453
sg10
(lp2454
I90
aI190
aI193
aI241
asg12
I0
sa(dp2455
g5
I0
sg6
S'Unspecified'
p2456
sg8
S'buoy'
p2457
sg10
(lp2458
I126
aI145
aI132
aI152
asg12
I0
sa(dp2459
g5
I0
sg6
S'Unspecified'
p2460
sg8
S'boat'
p2461
sg10
(lp2462
I280
aI137
aI301
aI146
asg12
I0
sa(dp2463
g5
I0
sg6
S'Unspecified'
p2464
sg8
S'buoy'
p2465
sg10
(lp2466
I371
aI145
aI378
aI153
asg12
I0
sa(dp2467
g5
I0
sg6
S'Unspecified'
p2468
sg8
S'boat'
p2469
sg10
(lp2470
I11
aI194
aI48
aI224
asg12
I0
sa(dp2471
g5
I0
sg6
S'Unspecified'
p2472
sg8
S'boat'
p2473
sg10
(lp2474
I336
aI206
aI481
aI249
asg12
I0
sa(dp2475
g5
I0
sg6
S'Unspecified'
p2476
sg8
S'boat'
p2477
sg10
(lp2478
I394
aI179
aI463
aI207
asg12
I0
sas.